   1              	 .cpu cortex-m0
   2              	 .fpu softvfp
   3              	 .eabi_attribute 20,1
   4              	 .eabi_attribute 21,1
   5              	 .eabi_attribute 23,3
   6              	 .eabi_attribute 24,1
   7              	 .eabi_attribute 25,1
   8              	 .eabi_attribute 26,1
   9              	 .eabi_attribute 30,6
  10              	 .eabi_attribute 34,0
  11              	 .eabi_attribute 18,4
  12              	 .code 16
  13              	 .file "uart_conf.c"
  14              	 .text
  15              	.Ltext0:
  16              	 .cfi_sections .debug_frame
  17              	 .section .text.NVIC_EnableIRQ,"ax",%progbits
  18              	 .align 2
  19              	 .code 16
  20              	 .thumb_func
  22              	NVIC_EnableIRQ:
  23              	.LFB25:
  24              	 .file 1 "C:/Workspaces/DAVE4/RGB_led/Libraries/CMSIS/Include/core_cm0.h"
   1:C:/Workspaces/DAVE4/RGB_led/Libraries/CMSIS/Include\core_cm0.h **** /**************************************************************************//**
   2:C:/Workspaces/DAVE4/RGB_led/Libraries/CMSIS/Include\core_cm0.h ****  * @file     core_cm0.h
   3:C:/Workspaces/DAVE4/RGB_led/Libraries/CMSIS/Include\core_cm0.h ****  * @brief    CMSIS Cortex-M0 Core Peripheral Access Layer Header File
   4:C:/Workspaces/DAVE4/RGB_led/Libraries/CMSIS/Include\core_cm0.h ****  * @version  V4.30
   5:C:/Workspaces/DAVE4/RGB_led/Libraries/CMSIS/Include\core_cm0.h ****  * @date     20. October 2015
   6:C:/Workspaces/DAVE4/RGB_led/Libraries/CMSIS/Include\core_cm0.h ****  ******************************************************************************/
   7:C:/Workspaces/DAVE4/RGB_led/Libraries/CMSIS/Include\core_cm0.h **** /* Copyright (c) 2009 - 2015 ARM LIMITED
   8:C:/Workspaces/DAVE4/RGB_led/Libraries/CMSIS/Include\core_cm0.h **** 
   9:C:/Workspaces/DAVE4/RGB_led/Libraries/CMSIS/Include\core_cm0.h ****    All rights reserved.
  10:C:/Workspaces/DAVE4/RGB_led/Libraries/CMSIS/Include\core_cm0.h ****    Redistribution and use in source and binary forms, with or without
  11:C:/Workspaces/DAVE4/RGB_led/Libraries/CMSIS/Include\core_cm0.h ****    modification, are permitted provided that the following conditions are met:
  12:C:/Workspaces/DAVE4/RGB_led/Libraries/CMSIS/Include\core_cm0.h ****    - Redistributions of source code must retain the above copyright
  13:C:/Workspaces/DAVE4/RGB_led/Libraries/CMSIS/Include\core_cm0.h ****      notice, this list of conditions and the following disclaimer.
  14:C:/Workspaces/DAVE4/RGB_led/Libraries/CMSIS/Include\core_cm0.h ****    - Redistributions in binary form must reproduce the above copyright
  15:C:/Workspaces/DAVE4/RGB_led/Libraries/CMSIS/Include\core_cm0.h ****      notice, this list of conditions and the following disclaimer in the
  16:C:/Workspaces/DAVE4/RGB_led/Libraries/CMSIS/Include\core_cm0.h ****      documentation and/or other materials provided with the distribution.
  17:C:/Workspaces/DAVE4/RGB_led/Libraries/CMSIS/Include\core_cm0.h ****    - Neither the name of ARM nor the names of its contributors may be used
  18:C:/Workspaces/DAVE4/RGB_led/Libraries/CMSIS/Include\core_cm0.h ****      to endorse or promote products derived from this software without
  19:C:/Workspaces/DAVE4/RGB_led/Libraries/CMSIS/Include\core_cm0.h ****      specific prior written permission.
  20:C:/Workspaces/DAVE4/RGB_led/Libraries/CMSIS/Include\core_cm0.h ****    *
  21:C:/Workspaces/DAVE4/RGB_led/Libraries/CMSIS/Include\core_cm0.h ****    THIS SOFTWARE IS PROVIDED BY THE COPYRIGHT HOLDERS AND CONTRIBUTORS "AS IS"
  22:C:/Workspaces/DAVE4/RGB_led/Libraries/CMSIS/Include\core_cm0.h ****    AND ANY EXPRESS OR IMPLIED WARRANTIES, INCLUDING, BUT NOT LIMITED TO, THE
  23:C:/Workspaces/DAVE4/RGB_led/Libraries/CMSIS/Include\core_cm0.h ****    IMPLIED WARRANTIES OF MERCHANTABILITY AND FITNESS FOR A PARTICULAR PURPOSE
  24:C:/Workspaces/DAVE4/RGB_led/Libraries/CMSIS/Include\core_cm0.h ****    ARE DISCLAIMED. IN NO EVENT SHALL COPYRIGHT HOLDERS AND CONTRIBUTORS BE
  25:C:/Workspaces/DAVE4/RGB_led/Libraries/CMSIS/Include\core_cm0.h ****    LIABLE FOR ANY DIRECT, INDIRECT, INCIDENTAL, SPECIAL, EXEMPLARY, OR
  26:C:/Workspaces/DAVE4/RGB_led/Libraries/CMSIS/Include\core_cm0.h ****    CONSEQUENTIAL DAMAGES (INCLUDING, BUT NOT LIMITED TO, PROCUREMENT OF
  27:C:/Workspaces/DAVE4/RGB_led/Libraries/CMSIS/Include\core_cm0.h ****    SUBSTITUTE GOODS OR SERVICES; LOSS OF USE, DATA, OR PROFITS; OR BUSINESS
  28:C:/Workspaces/DAVE4/RGB_led/Libraries/CMSIS/Include\core_cm0.h ****    INTERRUPTION) HOWEVER CAUSED AND ON ANY THEORY OF LIABILITY, WHETHER IN
  29:C:/Workspaces/DAVE4/RGB_led/Libraries/CMSIS/Include\core_cm0.h ****    CONTRACT, STRICT LIABILITY, OR TORT (INCLUDING NEGLIGENCE OR OTHERWISE)
  30:C:/Workspaces/DAVE4/RGB_led/Libraries/CMSIS/Include\core_cm0.h ****    ARISING IN ANY WAY OUT OF THE USE OF THIS SOFTWARE, EVEN IF ADVISED OF THE
  31:C:/Workspaces/DAVE4/RGB_led/Libraries/CMSIS/Include\core_cm0.h ****    POSSIBILITY OF SUCH DAMAGE.
  32:C:/Workspaces/DAVE4/RGB_led/Libraries/CMSIS/Include\core_cm0.h ****    ---------------------------------------------------------------------------*/
  33:C:/Workspaces/DAVE4/RGB_led/Libraries/CMSIS/Include\core_cm0.h **** 
  34:C:/Workspaces/DAVE4/RGB_led/Libraries/CMSIS/Include\core_cm0.h **** 
  35:C:/Workspaces/DAVE4/RGB_led/Libraries/CMSIS/Include\core_cm0.h **** #if   defined ( __ICCARM__ )
  36:C:/Workspaces/DAVE4/RGB_led/Libraries/CMSIS/Include\core_cm0.h ****  #pragma system_include         /* treat file as system include file for MISRA check */
  37:C:/Workspaces/DAVE4/RGB_led/Libraries/CMSIS/Include\core_cm0.h **** #elif defined(__ARMCC_VERSION) && (__ARMCC_VERSION >= 6010050)
  38:C:/Workspaces/DAVE4/RGB_led/Libraries/CMSIS/Include\core_cm0.h ****   #pragma clang system_header   /* treat file as system include file */
  39:C:/Workspaces/DAVE4/RGB_led/Libraries/CMSIS/Include\core_cm0.h **** #endif
  40:C:/Workspaces/DAVE4/RGB_led/Libraries/CMSIS/Include\core_cm0.h **** 
  41:C:/Workspaces/DAVE4/RGB_led/Libraries/CMSIS/Include\core_cm0.h **** #ifndef __CORE_CM0_H_GENERIC
  42:C:/Workspaces/DAVE4/RGB_led/Libraries/CMSIS/Include\core_cm0.h **** #define __CORE_CM0_H_GENERIC
  43:C:/Workspaces/DAVE4/RGB_led/Libraries/CMSIS/Include\core_cm0.h **** 
  44:C:/Workspaces/DAVE4/RGB_led/Libraries/CMSIS/Include\core_cm0.h **** #include <stdint.h>
  45:C:/Workspaces/DAVE4/RGB_led/Libraries/CMSIS/Include\core_cm0.h **** 
  46:C:/Workspaces/DAVE4/RGB_led/Libraries/CMSIS/Include\core_cm0.h **** #ifdef __cplusplus
  47:C:/Workspaces/DAVE4/RGB_led/Libraries/CMSIS/Include\core_cm0.h ****  extern "C" {
  48:C:/Workspaces/DAVE4/RGB_led/Libraries/CMSIS/Include\core_cm0.h **** #endif
  49:C:/Workspaces/DAVE4/RGB_led/Libraries/CMSIS/Include\core_cm0.h **** 
  50:C:/Workspaces/DAVE4/RGB_led/Libraries/CMSIS/Include\core_cm0.h **** /**
  51:C:/Workspaces/DAVE4/RGB_led/Libraries/CMSIS/Include\core_cm0.h ****   \page CMSIS_MISRA_Exceptions  MISRA-C:2004 Compliance Exceptions
  52:C:/Workspaces/DAVE4/RGB_led/Libraries/CMSIS/Include\core_cm0.h ****   CMSIS violates the following MISRA-C:2004 rules:
  53:C:/Workspaces/DAVE4/RGB_led/Libraries/CMSIS/Include\core_cm0.h **** 
  54:C:/Workspaces/DAVE4/RGB_led/Libraries/CMSIS/Include\core_cm0.h ****    \li Required Rule 8.5, object/function definition in header file.<br>
  55:C:/Workspaces/DAVE4/RGB_led/Libraries/CMSIS/Include\core_cm0.h ****      Function definitions in header files are used to allow 'inlining'.
  56:C:/Workspaces/DAVE4/RGB_led/Libraries/CMSIS/Include\core_cm0.h **** 
  57:C:/Workspaces/DAVE4/RGB_led/Libraries/CMSIS/Include\core_cm0.h ****    \li Required Rule 18.4, declaration of union type or object of union type: '{...}'.<br>
  58:C:/Workspaces/DAVE4/RGB_led/Libraries/CMSIS/Include\core_cm0.h ****      Unions are used for effective representation of core registers.
  59:C:/Workspaces/DAVE4/RGB_led/Libraries/CMSIS/Include\core_cm0.h **** 
  60:C:/Workspaces/DAVE4/RGB_led/Libraries/CMSIS/Include\core_cm0.h ****    \li Advisory Rule 19.7, Function-like macro defined.<br>
  61:C:/Workspaces/DAVE4/RGB_led/Libraries/CMSIS/Include\core_cm0.h ****      Function-like macros are used to allow more efficient code.
  62:C:/Workspaces/DAVE4/RGB_led/Libraries/CMSIS/Include\core_cm0.h ****  */
  63:C:/Workspaces/DAVE4/RGB_led/Libraries/CMSIS/Include\core_cm0.h **** 
  64:C:/Workspaces/DAVE4/RGB_led/Libraries/CMSIS/Include\core_cm0.h **** 
  65:C:/Workspaces/DAVE4/RGB_led/Libraries/CMSIS/Include\core_cm0.h **** /*******************************************************************************
  66:C:/Workspaces/DAVE4/RGB_led/Libraries/CMSIS/Include\core_cm0.h ****  *                 CMSIS definitions
  67:C:/Workspaces/DAVE4/RGB_led/Libraries/CMSIS/Include\core_cm0.h ****  ******************************************************************************/
  68:C:/Workspaces/DAVE4/RGB_led/Libraries/CMSIS/Include\core_cm0.h **** /**
  69:C:/Workspaces/DAVE4/RGB_led/Libraries/CMSIS/Include\core_cm0.h ****   \ingroup Cortex_M0
  70:C:/Workspaces/DAVE4/RGB_led/Libraries/CMSIS/Include\core_cm0.h ****   @{
  71:C:/Workspaces/DAVE4/RGB_led/Libraries/CMSIS/Include\core_cm0.h ****  */
  72:C:/Workspaces/DAVE4/RGB_led/Libraries/CMSIS/Include\core_cm0.h **** 
  73:C:/Workspaces/DAVE4/RGB_led/Libraries/CMSIS/Include\core_cm0.h **** /*  CMSIS CM0 definitions */
  74:C:/Workspaces/DAVE4/RGB_led/Libraries/CMSIS/Include\core_cm0.h **** #define __CM0_CMSIS_VERSION_MAIN  (0x04U)                                      /*!< [31:16] CMSIS H
  75:C:/Workspaces/DAVE4/RGB_led/Libraries/CMSIS/Include\core_cm0.h **** #define __CM0_CMSIS_VERSION_SUB   (0x1EU)                                      /*!< [15:0]  CMSIS H
  76:C:/Workspaces/DAVE4/RGB_led/Libraries/CMSIS/Include\core_cm0.h **** #define __CM0_CMSIS_VERSION       ((__CM0_CMSIS_VERSION_MAIN << 16U) | \
  77:C:/Workspaces/DAVE4/RGB_led/Libraries/CMSIS/Include\core_cm0.h ****                                     __CM0_CMSIS_VERSION_SUB           )        /*!< CMSIS HAL versi
  78:C:/Workspaces/DAVE4/RGB_led/Libraries/CMSIS/Include\core_cm0.h **** 
  79:C:/Workspaces/DAVE4/RGB_led/Libraries/CMSIS/Include\core_cm0.h **** #define __CORTEX_M                (0x00U)                                      /*!< Cortex-M Core *
  80:C:/Workspaces/DAVE4/RGB_led/Libraries/CMSIS/Include\core_cm0.h **** 
  81:C:/Workspaces/DAVE4/RGB_led/Libraries/CMSIS/Include\core_cm0.h **** 
  82:C:/Workspaces/DAVE4/RGB_led/Libraries/CMSIS/Include\core_cm0.h **** #if   defined ( __CC_ARM )
  83:C:/Workspaces/DAVE4/RGB_led/Libraries/CMSIS/Include\core_cm0.h ****   #define __ASM            __asm                                      /*!< asm keyword for ARM Comp
  84:C:/Workspaces/DAVE4/RGB_led/Libraries/CMSIS/Include\core_cm0.h ****   #define __INLINE         __inline                                   /*!< inline keyword for ARM C
  85:C:/Workspaces/DAVE4/RGB_led/Libraries/CMSIS/Include\core_cm0.h ****   #define __STATIC_INLINE  static __inline
  86:C:/Workspaces/DAVE4/RGB_led/Libraries/CMSIS/Include\core_cm0.h **** 
  87:C:/Workspaces/DAVE4/RGB_led/Libraries/CMSIS/Include\core_cm0.h **** #elif defined(__ARMCC_VERSION) && (__ARMCC_VERSION >= 6010050)
  88:C:/Workspaces/DAVE4/RGB_led/Libraries/CMSIS/Include\core_cm0.h ****   #define __ASM            __asm                                      /*!< asm keyword for ARM Comp
  89:C:/Workspaces/DAVE4/RGB_led/Libraries/CMSIS/Include\core_cm0.h ****   #define __INLINE         __inline                                   /*!< inline keyword for ARM C
  90:C:/Workspaces/DAVE4/RGB_led/Libraries/CMSIS/Include\core_cm0.h ****   #define __STATIC_INLINE  static __inline
  91:C:/Workspaces/DAVE4/RGB_led/Libraries/CMSIS/Include\core_cm0.h **** 
  92:C:/Workspaces/DAVE4/RGB_led/Libraries/CMSIS/Include\core_cm0.h **** #elif defined ( __GNUC__ )
  93:C:/Workspaces/DAVE4/RGB_led/Libraries/CMSIS/Include\core_cm0.h ****   #define __ASM            __asm                                      /*!< asm keyword for GNU Comp
  94:C:/Workspaces/DAVE4/RGB_led/Libraries/CMSIS/Include\core_cm0.h ****   #define __INLINE         inline                                     /*!< inline keyword for GNU C
  95:C:/Workspaces/DAVE4/RGB_led/Libraries/CMSIS/Include\core_cm0.h ****   #define __STATIC_INLINE  static inline
  96:C:/Workspaces/DAVE4/RGB_led/Libraries/CMSIS/Include\core_cm0.h **** 
  97:C:/Workspaces/DAVE4/RGB_led/Libraries/CMSIS/Include\core_cm0.h **** #elif defined ( __ICCARM__ )
  98:C:/Workspaces/DAVE4/RGB_led/Libraries/CMSIS/Include\core_cm0.h ****   #define __ASM            __asm                                      /*!< asm keyword for IAR Comp
  99:C:/Workspaces/DAVE4/RGB_led/Libraries/CMSIS/Include\core_cm0.h ****   #define __INLINE         inline                                     /*!< inline keyword for IAR C
 100:C:/Workspaces/DAVE4/RGB_led/Libraries/CMSIS/Include\core_cm0.h ****   #define __STATIC_INLINE  static inline
 101:C:/Workspaces/DAVE4/RGB_led/Libraries/CMSIS/Include\core_cm0.h **** 
 102:C:/Workspaces/DAVE4/RGB_led/Libraries/CMSIS/Include\core_cm0.h **** #elif defined ( __TMS470__ )
 103:C:/Workspaces/DAVE4/RGB_led/Libraries/CMSIS/Include\core_cm0.h ****   #define __ASM            __asm                                      /*!< asm keyword for TI CCS C
 104:C:/Workspaces/DAVE4/RGB_led/Libraries/CMSIS/Include\core_cm0.h ****   #define __STATIC_INLINE  static inline
 105:C:/Workspaces/DAVE4/RGB_led/Libraries/CMSIS/Include\core_cm0.h **** 
 106:C:/Workspaces/DAVE4/RGB_led/Libraries/CMSIS/Include\core_cm0.h **** #elif defined ( __TASKING__ )
 107:C:/Workspaces/DAVE4/RGB_led/Libraries/CMSIS/Include\core_cm0.h ****   #define __ASM            __asm                                      /*!< asm keyword for TASKING 
 108:C:/Workspaces/DAVE4/RGB_led/Libraries/CMSIS/Include\core_cm0.h ****   #define __INLINE         inline                                     /*!< inline keyword for TASKI
 109:C:/Workspaces/DAVE4/RGB_led/Libraries/CMSIS/Include\core_cm0.h ****   #define __STATIC_INLINE  static inline
 110:C:/Workspaces/DAVE4/RGB_led/Libraries/CMSIS/Include\core_cm0.h **** 
 111:C:/Workspaces/DAVE4/RGB_led/Libraries/CMSIS/Include\core_cm0.h **** #elif defined ( __CSMC__ )
 112:C:/Workspaces/DAVE4/RGB_led/Libraries/CMSIS/Include\core_cm0.h ****   #define __packed
 113:C:/Workspaces/DAVE4/RGB_led/Libraries/CMSIS/Include\core_cm0.h ****   #define __ASM            _asm                                      /*!< asm keyword for COSMIC Co
 114:C:/Workspaces/DAVE4/RGB_led/Libraries/CMSIS/Include\core_cm0.h ****   #define __INLINE         inline                                    /*!< inline keyword for COSMIC
 115:C:/Workspaces/DAVE4/RGB_led/Libraries/CMSIS/Include\core_cm0.h ****   #define __STATIC_INLINE  static inline
 116:C:/Workspaces/DAVE4/RGB_led/Libraries/CMSIS/Include\core_cm0.h **** 
 117:C:/Workspaces/DAVE4/RGB_led/Libraries/CMSIS/Include\core_cm0.h **** #else
 118:C:/Workspaces/DAVE4/RGB_led/Libraries/CMSIS/Include\core_cm0.h ****   #error Unknown compiler
 119:C:/Workspaces/DAVE4/RGB_led/Libraries/CMSIS/Include\core_cm0.h **** #endif
 120:C:/Workspaces/DAVE4/RGB_led/Libraries/CMSIS/Include\core_cm0.h **** 
 121:C:/Workspaces/DAVE4/RGB_led/Libraries/CMSIS/Include\core_cm0.h **** /** __FPU_USED indicates whether an FPU is used or not.
 122:C:/Workspaces/DAVE4/RGB_led/Libraries/CMSIS/Include\core_cm0.h ****     This core does not support an FPU at all
 123:C:/Workspaces/DAVE4/RGB_led/Libraries/CMSIS/Include\core_cm0.h **** */
 124:C:/Workspaces/DAVE4/RGB_led/Libraries/CMSIS/Include\core_cm0.h **** #define __FPU_USED       0U
 125:C:/Workspaces/DAVE4/RGB_led/Libraries/CMSIS/Include\core_cm0.h **** 
 126:C:/Workspaces/DAVE4/RGB_led/Libraries/CMSIS/Include\core_cm0.h **** #if defined ( __CC_ARM )
 127:C:/Workspaces/DAVE4/RGB_led/Libraries/CMSIS/Include\core_cm0.h ****   #if defined __TARGET_FPU_VFP
 128:C:/Workspaces/DAVE4/RGB_led/Libraries/CMSIS/Include\core_cm0.h ****     #error "Compiler generates FPU instructions for a device without an FPU (check __FPU_PRESENT)"
 129:C:/Workspaces/DAVE4/RGB_led/Libraries/CMSIS/Include\core_cm0.h ****   #endif
 130:C:/Workspaces/DAVE4/RGB_led/Libraries/CMSIS/Include\core_cm0.h **** 
 131:C:/Workspaces/DAVE4/RGB_led/Libraries/CMSIS/Include\core_cm0.h **** #elif defined(__ARMCC_VERSION) && (__ARMCC_VERSION >= 6010050)
 132:C:/Workspaces/DAVE4/RGB_led/Libraries/CMSIS/Include\core_cm0.h ****   #if defined __ARM_PCS_VFP
 133:C:/Workspaces/DAVE4/RGB_led/Libraries/CMSIS/Include\core_cm0.h ****     #error "Compiler generates FPU instructions for a device without an FPU (check __FPU_PRESENT)"
 134:C:/Workspaces/DAVE4/RGB_led/Libraries/CMSIS/Include\core_cm0.h ****   #endif
 135:C:/Workspaces/DAVE4/RGB_led/Libraries/CMSIS/Include\core_cm0.h **** 
 136:C:/Workspaces/DAVE4/RGB_led/Libraries/CMSIS/Include\core_cm0.h **** #elif defined ( __GNUC__ )
 137:C:/Workspaces/DAVE4/RGB_led/Libraries/CMSIS/Include\core_cm0.h ****   #if defined (__VFP_FP__) && !defined(__SOFTFP__)
 138:C:/Workspaces/DAVE4/RGB_led/Libraries/CMSIS/Include\core_cm0.h ****     #error "Compiler generates FPU instructions for a device without an FPU (check __FPU_PRESENT)"
 139:C:/Workspaces/DAVE4/RGB_led/Libraries/CMSIS/Include\core_cm0.h ****   #endif
 140:C:/Workspaces/DAVE4/RGB_led/Libraries/CMSIS/Include\core_cm0.h **** 
 141:C:/Workspaces/DAVE4/RGB_led/Libraries/CMSIS/Include\core_cm0.h **** #elif defined ( __ICCARM__ )
 142:C:/Workspaces/DAVE4/RGB_led/Libraries/CMSIS/Include\core_cm0.h ****   #if defined __ARMVFP__
 143:C:/Workspaces/DAVE4/RGB_led/Libraries/CMSIS/Include\core_cm0.h ****     #error "Compiler generates FPU instructions for a device without an FPU (check __FPU_PRESENT)"
 144:C:/Workspaces/DAVE4/RGB_led/Libraries/CMSIS/Include\core_cm0.h ****   #endif
 145:C:/Workspaces/DAVE4/RGB_led/Libraries/CMSIS/Include\core_cm0.h **** 
 146:C:/Workspaces/DAVE4/RGB_led/Libraries/CMSIS/Include\core_cm0.h **** #elif defined ( __TMS470__ )
 147:C:/Workspaces/DAVE4/RGB_led/Libraries/CMSIS/Include\core_cm0.h ****   #if defined __TI_VFP_SUPPORT__
 148:C:/Workspaces/DAVE4/RGB_led/Libraries/CMSIS/Include\core_cm0.h ****     #error "Compiler generates FPU instructions for a device without an FPU (check __FPU_PRESENT)"
 149:C:/Workspaces/DAVE4/RGB_led/Libraries/CMSIS/Include\core_cm0.h ****   #endif
 150:C:/Workspaces/DAVE4/RGB_led/Libraries/CMSIS/Include\core_cm0.h **** 
 151:C:/Workspaces/DAVE4/RGB_led/Libraries/CMSIS/Include\core_cm0.h **** #elif defined ( __TASKING__ )
 152:C:/Workspaces/DAVE4/RGB_led/Libraries/CMSIS/Include\core_cm0.h ****   #if defined __FPU_VFP__
 153:C:/Workspaces/DAVE4/RGB_led/Libraries/CMSIS/Include\core_cm0.h ****     #error "Compiler generates FPU instructions for a device without an FPU (check __FPU_PRESENT)"
 154:C:/Workspaces/DAVE4/RGB_led/Libraries/CMSIS/Include\core_cm0.h ****   #endif
 155:C:/Workspaces/DAVE4/RGB_led/Libraries/CMSIS/Include\core_cm0.h **** 
 156:C:/Workspaces/DAVE4/RGB_led/Libraries/CMSIS/Include\core_cm0.h **** #elif defined ( __CSMC__ )
 157:C:/Workspaces/DAVE4/RGB_led/Libraries/CMSIS/Include\core_cm0.h ****   #if ( __CSMC__ & 0x400U)
 158:C:/Workspaces/DAVE4/RGB_led/Libraries/CMSIS/Include\core_cm0.h ****     #error "Compiler generates FPU instructions for a device without an FPU (check __FPU_PRESENT)"
 159:C:/Workspaces/DAVE4/RGB_led/Libraries/CMSIS/Include\core_cm0.h ****   #endif
 160:C:/Workspaces/DAVE4/RGB_led/Libraries/CMSIS/Include\core_cm0.h **** 
 161:C:/Workspaces/DAVE4/RGB_led/Libraries/CMSIS/Include\core_cm0.h **** #endif
 162:C:/Workspaces/DAVE4/RGB_led/Libraries/CMSIS/Include\core_cm0.h **** 
 163:C:/Workspaces/DAVE4/RGB_led/Libraries/CMSIS/Include\core_cm0.h **** #include "core_cmInstr.h"                /* Core Instruction Access */
 164:C:/Workspaces/DAVE4/RGB_led/Libraries/CMSIS/Include\core_cm0.h **** #include "core_cmFunc.h"                 /* Core Function Access */
 165:C:/Workspaces/DAVE4/RGB_led/Libraries/CMSIS/Include\core_cm0.h **** 
 166:C:/Workspaces/DAVE4/RGB_led/Libraries/CMSIS/Include\core_cm0.h **** #ifdef __cplusplus
 167:C:/Workspaces/DAVE4/RGB_led/Libraries/CMSIS/Include\core_cm0.h **** }
 168:C:/Workspaces/DAVE4/RGB_led/Libraries/CMSIS/Include\core_cm0.h **** #endif
 169:C:/Workspaces/DAVE4/RGB_led/Libraries/CMSIS/Include\core_cm0.h **** 
 170:C:/Workspaces/DAVE4/RGB_led/Libraries/CMSIS/Include\core_cm0.h **** #endif /* __CORE_CM0_H_GENERIC */
 171:C:/Workspaces/DAVE4/RGB_led/Libraries/CMSIS/Include\core_cm0.h **** 
 172:C:/Workspaces/DAVE4/RGB_led/Libraries/CMSIS/Include\core_cm0.h **** #ifndef __CMSIS_GENERIC
 173:C:/Workspaces/DAVE4/RGB_led/Libraries/CMSIS/Include\core_cm0.h **** 
 174:C:/Workspaces/DAVE4/RGB_led/Libraries/CMSIS/Include\core_cm0.h **** #ifndef __CORE_CM0_H_DEPENDANT
 175:C:/Workspaces/DAVE4/RGB_led/Libraries/CMSIS/Include\core_cm0.h **** #define __CORE_CM0_H_DEPENDANT
 176:C:/Workspaces/DAVE4/RGB_led/Libraries/CMSIS/Include\core_cm0.h **** 
 177:C:/Workspaces/DAVE4/RGB_led/Libraries/CMSIS/Include\core_cm0.h **** #ifdef __cplusplus
 178:C:/Workspaces/DAVE4/RGB_led/Libraries/CMSIS/Include\core_cm0.h ****  extern "C" {
 179:C:/Workspaces/DAVE4/RGB_led/Libraries/CMSIS/Include\core_cm0.h **** #endif
 180:C:/Workspaces/DAVE4/RGB_led/Libraries/CMSIS/Include\core_cm0.h **** 
 181:C:/Workspaces/DAVE4/RGB_led/Libraries/CMSIS/Include\core_cm0.h **** /* check device defines and use defaults */
 182:C:/Workspaces/DAVE4/RGB_led/Libraries/CMSIS/Include\core_cm0.h **** #if defined __CHECK_DEVICE_DEFINES
 183:C:/Workspaces/DAVE4/RGB_led/Libraries/CMSIS/Include\core_cm0.h ****   #ifndef __CM0_REV
 184:C:/Workspaces/DAVE4/RGB_led/Libraries/CMSIS/Include\core_cm0.h ****     #define __CM0_REV               0x0000U
 185:C:/Workspaces/DAVE4/RGB_led/Libraries/CMSIS/Include\core_cm0.h ****     #warning "__CM0_REV not defined in device header file; using default!"
 186:C:/Workspaces/DAVE4/RGB_led/Libraries/CMSIS/Include\core_cm0.h ****   #endif
 187:C:/Workspaces/DAVE4/RGB_led/Libraries/CMSIS/Include\core_cm0.h **** 
 188:C:/Workspaces/DAVE4/RGB_led/Libraries/CMSIS/Include\core_cm0.h ****   #ifndef __NVIC_PRIO_BITS
 189:C:/Workspaces/DAVE4/RGB_led/Libraries/CMSIS/Include\core_cm0.h ****     #define __NVIC_PRIO_BITS          2U
 190:C:/Workspaces/DAVE4/RGB_led/Libraries/CMSIS/Include\core_cm0.h ****     #warning "__NVIC_PRIO_BITS not defined in device header file; using default!"
 191:C:/Workspaces/DAVE4/RGB_led/Libraries/CMSIS/Include\core_cm0.h ****   #endif
 192:C:/Workspaces/DAVE4/RGB_led/Libraries/CMSIS/Include\core_cm0.h **** 
 193:C:/Workspaces/DAVE4/RGB_led/Libraries/CMSIS/Include\core_cm0.h ****   #ifndef __Vendor_SysTickConfig
 194:C:/Workspaces/DAVE4/RGB_led/Libraries/CMSIS/Include\core_cm0.h ****     #define __Vendor_SysTickConfig    0U
 195:C:/Workspaces/DAVE4/RGB_led/Libraries/CMSIS/Include\core_cm0.h ****     #warning "__Vendor_SysTickConfig not defined in device header file; using default!"
 196:C:/Workspaces/DAVE4/RGB_led/Libraries/CMSIS/Include\core_cm0.h ****   #endif
 197:C:/Workspaces/DAVE4/RGB_led/Libraries/CMSIS/Include\core_cm0.h **** #endif
 198:C:/Workspaces/DAVE4/RGB_led/Libraries/CMSIS/Include\core_cm0.h **** 
 199:C:/Workspaces/DAVE4/RGB_led/Libraries/CMSIS/Include\core_cm0.h **** /* IO definitions (access restrictions to peripheral registers) */
 200:C:/Workspaces/DAVE4/RGB_led/Libraries/CMSIS/Include\core_cm0.h **** /**
 201:C:/Workspaces/DAVE4/RGB_led/Libraries/CMSIS/Include\core_cm0.h ****     \defgroup CMSIS_glob_defs CMSIS Global Defines
 202:C:/Workspaces/DAVE4/RGB_led/Libraries/CMSIS/Include\core_cm0.h **** 
 203:C:/Workspaces/DAVE4/RGB_led/Libraries/CMSIS/Include\core_cm0.h ****     <strong>IO Type Qualifiers</strong> are used
 204:C:/Workspaces/DAVE4/RGB_led/Libraries/CMSIS/Include\core_cm0.h ****     \li to specify the access to peripheral variables.
 205:C:/Workspaces/DAVE4/RGB_led/Libraries/CMSIS/Include\core_cm0.h ****     \li for automatic generation of peripheral register debug information.
 206:C:/Workspaces/DAVE4/RGB_led/Libraries/CMSIS/Include\core_cm0.h **** */
 207:C:/Workspaces/DAVE4/RGB_led/Libraries/CMSIS/Include\core_cm0.h **** #ifdef __cplusplus
 208:C:/Workspaces/DAVE4/RGB_led/Libraries/CMSIS/Include\core_cm0.h ****   #define   __I     volatile             /*!< Defines 'read only' permissions */
 209:C:/Workspaces/DAVE4/RGB_led/Libraries/CMSIS/Include\core_cm0.h **** #else
 210:C:/Workspaces/DAVE4/RGB_led/Libraries/CMSIS/Include\core_cm0.h ****   #define   __I     volatile const       /*!< Defines 'read only' permissions */
 211:C:/Workspaces/DAVE4/RGB_led/Libraries/CMSIS/Include\core_cm0.h **** #endif
 212:C:/Workspaces/DAVE4/RGB_led/Libraries/CMSIS/Include\core_cm0.h **** #define     __O     volatile             /*!< Defines 'write only' permissions */
 213:C:/Workspaces/DAVE4/RGB_led/Libraries/CMSIS/Include\core_cm0.h **** #define     __IO    volatile             /*!< Defines 'read / write' permissions */
 214:C:/Workspaces/DAVE4/RGB_led/Libraries/CMSIS/Include\core_cm0.h **** 
 215:C:/Workspaces/DAVE4/RGB_led/Libraries/CMSIS/Include\core_cm0.h **** /* following defines should be used for structure members */
 216:C:/Workspaces/DAVE4/RGB_led/Libraries/CMSIS/Include\core_cm0.h **** #define     __IM     volatile const      /*! Defines 'read only' structure member permissions */
 217:C:/Workspaces/DAVE4/RGB_led/Libraries/CMSIS/Include\core_cm0.h **** #define     __OM     volatile            /*! Defines 'write only' structure member permissions */
 218:C:/Workspaces/DAVE4/RGB_led/Libraries/CMSIS/Include\core_cm0.h **** #define     __IOM    volatile            /*! Defines 'read / write' structure member permissions */
 219:C:/Workspaces/DAVE4/RGB_led/Libraries/CMSIS/Include\core_cm0.h **** 
 220:C:/Workspaces/DAVE4/RGB_led/Libraries/CMSIS/Include\core_cm0.h **** /*@} end of group Cortex_M0 */
 221:C:/Workspaces/DAVE4/RGB_led/Libraries/CMSIS/Include\core_cm0.h **** 
 222:C:/Workspaces/DAVE4/RGB_led/Libraries/CMSIS/Include\core_cm0.h **** 
 223:C:/Workspaces/DAVE4/RGB_led/Libraries/CMSIS/Include\core_cm0.h **** 
 224:C:/Workspaces/DAVE4/RGB_led/Libraries/CMSIS/Include\core_cm0.h **** /*******************************************************************************
 225:C:/Workspaces/DAVE4/RGB_led/Libraries/CMSIS/Include\core_cm0.h ****  *                 Register Abstraction
 226:C:/Workspaces/DAVE4/RGB_led/Libraries/CMSIS/Include\core_cm0.h ****   Core Register contain:
 227:C:/Workspaces/DAVE4/RGB_led/Libraries/CMSIS/Include\core_cm0.h ****   - Core Register
 228:C:/Workspaces/DAVE4/RGB_led/Libraries/CMSIS/Include\core_cm0.h ****   - Core NVIC Register
 229:C:/Workspaces/DAVE4/RGB_led/Libraries/CMSIS/Include\core_cm0.h ****   - Core SCB Register
 230:C:/Workspaces/DAVE4/RGB_led/Libraries/CMSIS/Include\core_cm0.h ****   - Core SysTick Register
 231:C:/Workspaces/DAVE4/RGB_led/Libraries/CMSIS/Include\core_cm0.h ****  ******************************************************************************/
 232:C:/Workspaces/DAVE4/RGB_led/Libraries/CMSIS/Include\core_cm0.h **** /**
 233:C:/Workspaces/DAVE4/RGB_led/Libraries/CMSIS/Include\core_cm0.h ****   \defgroup CMSIS_core_register Defines and Type Definitions
 234:C:/Workspaces/DAVE4/RGB_led/Libraries/CMSIS/Include\core_cm0.h ****   \brief Type definitions and defines for Cortex-M processor based devices.
 235:C:/Workspaces/DAVE4/RGB_led/Libraries/CMSIS/Include\core_cm0.h **** */
 236:C:/Workspaces/DAVE4/RGB_led/Libraries/CMSIS/Include\core_cm0.h **** 
 237:C:/Workspaces/DAVE4/RGB_led/Libraries/CMSIS/Include\core_cm0.h **** /**
 238:C:/Workspaces/DAVE4/RGB_led/Libraries/CMSIS/Include\core_cm0.h ****   \ingroup    CMSIS_core_register
 239:C:/Workspaces/DAVE4/RGB_led/Libraries/CMSIS/Include\core_cm0.h ****   \defgroup   CMSIS_CORE  Status and Control Registers
 240:C:/Workspaces/DAVE4/RGB_led/Libraries/CMSIS/Include\core_cm0.h ****   \brief      Core Register type definitions.
 241:C:/Workspaces/DAVE4/RGB_led/Libraries/CMSIS/Include\core_cm0.h ****   @{
 242:C:/Workspaces/DAVE4/RGB_led/Libraries/CMSIS/Include\core_cm0.h ****  */
 243:C:/Workspaces/DAVE4/RGB_led/Libraries/CMSIS/Include\core_cm0.h **** 
 244:C:/Workspaces/DAVE4/RGB_led/Libraries/CMSIS/Include\core_cm0.h **** /**
 245:C:/Workspaces/DAVE4/RGB_led/Libraries/CMSIS/Include\core_cm0.h ****   \brief  Union type to access the Application Program Status Register (APSR).
 246:C:/Workspaces/DAVE4/RGB_led/Libraries/CMSIS/Include\core_cm0.h ****  */
 247:C:/Workspaces/DAVE4/RGB_led/Libraries/CMSIS/Include\core_cm0.h **** typedef union
 248:C:/Workspaces/DAVE4/RGB_led/Libraries/CMSIS/Include\core_cm0.h **** {
 249:C:/Workspaces/DAVE4/RGB_led/Libraries/CMSIS/Include\core_cm0.h ****   struct
 250:C:/Workspaces/DAVE4/RGB_led/Libraries/CMSIS/Include\core_cm0.h ****   {
 251:C:/Workspaces/DAVE4/RGB_led/Libraries/CMSIS/Include\core_cm0.h ****     uint32_t _reserved0:28;              /*!< bit:  0..27  Reserved */
 252:C:/Workspaces/DAVE4/RGB_led/Libraries/CMSIS/Include\core_cm0.h ****     uint32_t V:1;                        /*!< bit:     28  Overflow condition code flag */
 253:C:/Workspaces/DAVE4/RGB_led/Libraries/CMSIS/Include\core_cm0.h ****     uint32_t C:1;                        /*!< bit:     29  Carry condition code flag */
 254:C:/Workspaces/DAVE4/RGB_led/Libraries/CMSIS/Include\core_cm0.h ****     uint32_t Z:1;                        /*!< bit:     30  Zero condition code flag */
 255:C:/Workspaces/DAVE4/RGB_led/Libraries/CMSIS/Include\core_cm0.h ****     uint32_t N:1;                        /*!< bit:     31  Negative condition code flag */
 256:C:/Workspaces/DAVE4/RGB_led/Libraries/CMSIS/Include\core_cm0.h ****   } b;                                   /*!< Structure used for bit  access */
 257:C:/Workspaces/DAVE4/RGB_led/Libraries/CMSIS/Include\core_cm0.h ****   uint32_t w;                            /*!< Type      used for word access */
 258:C:/Workspaces/DAVE4/RGB_led/Libraries/CMSIS/Include\core_cm0.h **** } APSR_Type;
 259:C:/Workspaces/DAVE4/RGB_led/Libraries/CMSIS/Include\core_cm0.h **** 
 260:C:/Workspaces/DAVE4/RGB_led/Libraries/CMSIS/Include\core_cm0.h **** /* APSR Register Definitions */
 261:C:/Workspaces/DAVE4/RGB_led/Libraries/CMSIS/Include\core_cm0.h **** #define APSR_N_Pos                         31U                                            /*!< APSR
 262:C:/Workspaces/DAVE4/RGB_led/Libraries/CMSIS/Include\core_cm0.h **** #define APSR_N_Msk                         (1UL << APSR_N_Pos)                            /*!< APSR
 263:C:/Workspaces/DAVE4/RGB_led/Libraries/CMSIS/Include\core_cm0.h **** 
 264:C:/Workspaces/DAVE4/RGB_led/Libraries/CMSIS/Include\core_cm0.h **** #define APSR_Z_Pos                         30U                                            /*!< APSR
 265:C:/Workspaces/DAVE4/RGB_led/Libraries/CMSIS/Include\core_cm0.h **** #define APSR_Z_Msk                         (1UL << APSR_Z_Pos)                            /*!< APSR
 266:C:/Workspaces/DAVE4/RGB_led/Libraries/CMSIS/Include\core_cm0.h **** 
 267:C:/Workspaces/DAVE4/RGB_led/Libraries/CMSIS/Include\core_cm0.h **** #define APSR_C_Pos                         29U                                            /*!< APSR
 268:C:/Workspaces/DAVE4/RGB_led/Libraries/CMSIS/Include\core_cm0.h **** #define APSR_C_Msk                         (1UL << APSR_C_Pos)                            /*!< APSR
 269:C:/Workspaces/DAVE4/RGB_led/Libraries/CMSIS/Include\core_cm0.h **** 
 270:C:/Workspaces/DAVE4/RGB_led/Libraries/CMSIS/Include\core_cm0.h **** #define APSR_V_Pos                         28U                                            /*!< APSR
 271:C:/Workspaces/DAVE4/RGB_led/Libraries/CMSIS/Include\core_cm0.h **** #define APSR_V_Msk                         (1UL << APSR_V_Pos)                            /*!< APSR
 272:C:/Workspaces/DAVE4/RGB_led/Libraries/CMSIS/Include\core_cm0.h **** 
 273:C:/Workspaces/DAVE4/RGB_led/Libraries/CMSIS/Include\core_cm0.h **** 
 274:C:/Workspaces/DAVE4/RGB_led/Libraries/CMSIS/Include\core_cm0.h **** /**
 275:C:/Workspaces/DAVE4/RGB_led/Libraries/CMSIS/Include\core_cm0.h ****   \brief  Union type to access the Interrupt Program Status Register (IPSR).
 276:C:/Workspaces/DAVE4/RGB_led/Libraries/CMSIS/Include\core_cm0.h ****  */
 277:C:/Workspaces/DAVE4/RGB_led/Libraries/CMSIS/Include\core_cm0.h **** typedef union
 278:C:/Workspaces/DAVE4/RGB_led/Libraries/CMSIS/Include\core_cm0.h **** {
 279:C:/Workspaces/DAVE4/RGB_led/Libraries/CMSIS/Include\core_cm0.h ****   struct
 280:C:/Workspaces/DAVE4/RGB_led/Libraries/CMSIS/Include\core_cm0.h ****   {
 281:C:/Workspaces/DAVE4/RGB_led/Libraries/CMSIS/Include\core_cm0.h ****     uint32_t ISR:9;                      /*!< bit:  0.. 8  Exception number */
 282:C:/Workspaces/DAVE4/RGB_led/Libraries/CMSIS/Include\core_cm0.h ****     uint32_t _reserved0:23;              /*!< bit:  9..31  Reserved */
 283:C:/Workspaces/DAVE4/RGB_led/Libraries/CMSIS/Include\core_cm0.h ****   } b;                                   /*!< Structure used for bit  access */
 284:C:/Workspaces/DAVE4/RGB_led/Libraries/CMSIS/Include\core_cm0.h ****   uint32_t w;                            /*!< Type      used for word access */
 285:C:/Workspaces/DAVE4/RGB_led/Libraries/CMSIS/Include\core_cm0.h **** } IPSR_Type;
 286:C:/Workspaces/DAVE4/RGB_led/Libraries/CMSIS/Include\core_cm0.h **** 
 287:C:/Workspaces/DAVE4/RGB_led/Libraries/CMSIS/Include\core_cm0.h **** /* IPSR Register Definitions */
 288:C:/Workspaces/DAVE4/RGB_led/Libraries/CMSIS/Include\core_cm0.h **** #define IPSR_ISR_Pos                        0U                                            /*!< IPSR
 289:C:/Workspaces/DAVE4/RGB_led/Libraries/CMSIS/Include\core_cm0.h **** #define IPSR_ISR_Msk                       (0x1FFUL /*<< IPSR_ISR_Pos*/)                  /*!< IPSR
 290:C:/Workspaces/DAVE4/RGB_led/Libraries/CMSIS/Include\core_cm0.h **** 
 291:C:/Workspaces/DAVE4/RGB_led/Libraries/CMSIS/Include\core_cm0.h **** 
 292:C:/Workspaces/DAVE4/RGB_led/Libraries/CMSIS/Include\core_cm0.h **** /**
 293:C:/Workspaces/DAVE4/RGB_led/Libraries/CMSIS/Include\core_cm0.h ****   \brief  Union type to access the Special-Purpose Program Status Registers (xPSR).
 294:C:/Workspaces/DAVE4/RGB_led/Libraries/CMSIS/Include\core_cm0.h ****  */
 295:C:/Workspaces/DAVE4/RGB_led/Libraries/CMSIS/Include\core_cm0.h **** typedef union
 296:C:/Workspaces/DAVE4/RGB_led/Libraries/CMSIS/Include\core_cm0.h **** {
 297:C:/Workspaces/DAVE4/RGB_led/Libraries/CMSIS/Include\core_cm0.h ****   struct
 298:C:/Workspaces/DAVE4/RGB_led/Libraries/CMSIS/Include\core_cm0.h ****   {
 299:C:/Workspaces/DAVE4/RGB_led/Libraries/CMSIS/Include\core_cm0.h ****     uint32_t ISR:9;                      /*!< bit:  0.. 8  Exception number */
 300:C:/Workspaces/DAVE4/RGB_led/Libraries/CMSIS/Include\core_cm0.h ****     uint32_t _reserved0:15;              /*!< bit:  9..23  Reserved */
 301:C:/Workspaces/DAVE4/RGB_led/Libraries/CMSIS/Include\core_cm0.h ****     uint32_t T:1;                        /*!< bit:     24  Thumb bit        (read 0) */
 302:C:/Workspaces/DAVE4/RGB_led/Libraries/CMSIS/Include\core_cm0.h ****     uint32_t _reserved1:3;               /*!< bit: 25..27  Reserved */
 303:C:/Workspaces/DAVE4/RGB_led/Libraries/CMSIS/Include\core_cm0.h ****     uint32_t V:1;                        /*!< bit:     28  Overflow condition code flag */
 304:C:/Workspaces/DAVE4/RGB_led/Libraries/CMSIS/Include\core_cm0.h ****     uint32_t C:1;                        /*!< bit:     29  Carry condition code flag */
 305:C:/Workspaces/DAVE4/RGB_led/Libraries/CMSIS/Include\core_cm0.h ****     uint32_t Z:1;                        /*!< bit:     30  Zero condition code flag */
 306:C:/Workspaces/DAVE4/RGB_led/Libraries/CMSIS/Include\core_cm0.h ****     uint32_t N:1;                        /*!< bit:     31  Negative condition code flag */
 307:C:/Workspaces/DAVE4/RGB_led/Libraries/CMSIS/Include\core_cm0.h ****   } b;                                   /*!< Structure used for bit  access */
 308:C:/Workspaces/DAVE4/RGB_led/Libraries/CMSIS/Include\core_cm0.h ****   uint32_t w;                            /*!< Type      used for word access */
 309:C:/Workspaces/DAVE4/RGB_led/Libraries/CMSIS/Include\core_cm0.h **** } xPSR_Type;
 310:C:/Workspaces/DAVE4/RGB_led/Libraries/CMSIS/Include\core_cm0.h **** 
 311:C:/Workspaces/DAVE4/RGB_led/Libraries/CMSIS/Include\core_cm0.h **** /* xPSR Register Definitions */
 312:C:/Workspaces/DAVE4/RGB_led/Libraries/CMSIS/Include\core_cm0.h **** #define xPSR_N_Pos                         31U                                            /*!< xPSR
 313:C:/Workspaces/DAVE4/RGB_led/Libraries/CMSIS/Include\core_cm0.h **** #define xPSR_N_Msk                         (1UL << xPSR_N_Pos)                            /*!< xPSR
 314:C:/Workspaces/DAVE4/RGB_led/Libraries/CMSIS/Include\core_cm0.h **** 
 315:C:/Workspaces/DAVE4/RGB_led/Libraries/CMSIS/Include\core_cm0.h **** #define xPSR_Z_Pos                         30U                                            /*!< xPSR
 316:C:/Workspaces/DAVE4/RGB_led/Libraries/CMSIS/Include\core_cm0.h **** #define xPSR_Z_Msk                         (1UL << xPSR_Z_Pos)                            /*!< xPSR
 317:C:/Workspaces/DAVE4/RGB_led/Libraries/CMSIS/Include\core_cm0.h **** 
 318:C:/Workspaces/DAVE4/RGB_led/Libraries/CMSIS/Include\core_cm0.h **** #define xPSR_C_Pos                         29U                                            /*!< xPSR
 319:C:/Workspaces/DAVE4/RGB_led/Libraries/CMSIS/Include\core_cm0.h **** #define xPSR_C_Msk                         (1UL << xPSR_C_Pos)                            /*!< xPSR
 320:C:/Workspaces/DAVE4/RGB_led/Libraries/CMSIS/Include\core_cm0.h **** 
 321:C:/Workspaces/DAVE4/RGB_led/Libraries/CMSIS/Include\core_cm0.h **** #define xPSR_V_Pos                         28U                                            /*!< xPSR
 322:C:/Workspaces/DAVE4/RGB_led/Libraries/CMSIS/Include\core_cm0.h **** #define xPSR_V_Msk                         (1UL << xPSR_V_Pos)                            /*!< xPSR
 323:C:/Workspaces/DAVE4/RGB_led/Libraries/CMSIS/Include\core_cm0.h **** 
 324:C:/Workspaces/DAVE4/RGB_led/Libraries/CMSIS/Include\core_cm0.h **** #define xPSR_T_Pos                         24U                                            /*!< xPSR
 325:C:/Workspaces/DAVE4/RGB_led/Libraries/CMSIS/Include\core_cm0.h **** #define xPSR_T_Msk                         (1UL << xPSR_T_Pos)                            /*!< xPSR
 326:C:/Workspaces/DAVE4/RGB_led/Libraries/CMSIS/Include\core_cm0.h **** 
 327:C:/Workspaces/DAVE4/RGB_led/Libraries/CMSIS/Include\core_cm0.h **** #define xPSR_ISR_Pos                        0U                                            /*!< xPSR
 328:C:/Workspaces/DAVE4/RGB_led/Libraries/CMSIS/Include\core_cm0.h **** #define xPSR_ISR_Msk                       (0x1FFUL /*<< xPSR_ISR_Pos*/)                  /*!< xPSR
 329:C:/Workspaces/DAVE4/RGB_led/Libraries/CMSIS/Include\core_cm0.h **** 
 330:C:/Workspaces/DAVE4/RGB_led/Libraries/CMSIS/Include\core_cm0.h **** 
 331:C:/Workspaces/DAVE4/RGB_led/Libraries/CMSIS/Include\core_cm0.h **** /**
 332:C:/Workspaces/DAVE4/RGB_led/Libraries/CMSIS/Include\core_cm0.h ****   \brief  Union type to access the Control Registers (CONTROL).
 333:C:/Workspaces/DAVE4/RGB_led/Libraries/CMSIS/Include\core_cm0.h ****  */
 334:C:/Workspaces/DAVE4/RGB_led/Libraries/CMSIS/Include\core_cm0.h **** typedef union
 335:C:/Workspaces/DAVE4/RGB_led/Libraries/CMSIS/Include\core_cm0.h **** {
 336:C:/Workspaces/DAVE4/RGB_led/Libraries/CMSIS/Include\core_cm0.h ****   struct
 337:C:/Workspaces/DAVE4/RGB_led/Libraries/CMSIS/Include\core_cm0.h ****   {
 338:C:/Workspaces/DAVE4/RGB_led/Libraries/CMSIS/Include\core_cm0.h ****     uint32_t _reserved0:1;               /*!< bit:      0  Reserved */
 339:C:/Workspaces/DAVE4/RGB_led/Libraries/CMSIS/Include\core_cm0.h ****     uint32_t SPSEL:1;                    /*!< bit:      1  Stack to be used */
 340:C:/Workspaces/DAVE4/RGB_led/Libraries/CMSIS/Include\core_cm0.h ****     uint32_t _reserved1:30;              /*!< bit:  2..31  Reserved */
 341:C:/Workspaces/DAVE4/RGB_led/Libraries/CMSIS/Include\core_cm0.h ****   } b;                                   /*!< Structure used for bit  access */
 342:C:/Workspaces/DAVE4/RGB_led/Libraries/CMSIS/Include\core_cm0.h ****   uint32_t w;                            /*!< Type      used for word access */
 343:C:/Workspaces/DAVE4/RGB_led/Libraries/CMSIS/Include\core_cm0.h **** } CONTROL_Type;
 344:C:/Workspaces/DAVE4/RGB_led/Libraries/CMSIS/Include\core_cm0.h **** 
 345:C:/Workspaces/DAVE4/RGB_led/Libraries/CMSIS/Include\core_cm0.h **** /* CONTROL Register Definitions */
 346:C:/Workspaces/DAVE4/RGB_led/Libraries/CMSIS/Include\core_cm0.h **** #define CONTROL_SPSEL_Pos                   1U                                            /*!< CONT
 347:C:/Workspaces/DAVE4/RGB_led/Libraries/CMSIS/Include\core_cm0.h **** #define CONTROL_SPSEL_Msk                  (1UL << CONTROL_SPSEL_Pos)                     /*!< CONT
 348:C:/Workspaces/DAVE4/RGB_led/Libraries/CMSIS/Include\core_cm0.h **** 
 349:C:/Workspaces/DAVE4/RGB_led/Libraries/CMSIS/Include\core_cm0.h **** /*@} end of group CMSIS_CORE */
 350:C:/Workspaces/DAVE4/RGB_led/Libraries/CMSIS/Include\core_cm0.h **** 
 351:C:/Workspaces/DAVE4/RGB_led/Libraries/CMSIS/Include\core_cm0.h **** 
 352:C:/Workspaces/DAVE4/RGB_led/Libraries/CMSIS/Include\core_cm0.h **** /**
 353:C:/Workspaces/DAVE4/RGB_led/Libraries/CMSIS/Include\core_cm0.h ****   \ingroup    CMSIS_core_register
 354:C:/Workspaces/DAVE4/RGB_led/Libraries/CMSIS/Include\core_cm0.h ****   \defgroup   CMSIS_NVIC  Nested Vectored Interrupt Controller (NVIC)
 355:C:/Workspaces/DAVE4/RGB_led/Libraries/CMSIS/Include\core_cm0.h ****   \brief      Type definitions for the NVIC Registers
 356:C:/Workspaces/DAVE4/RGB_led/Libraries/CMSIS/Include\core_cm0.h ****   @{
 357:C:/Workspaces/DAVE4/RGB_led/Libraries/CMSIS/Include\core_cm0.h ****  */
 358:C:/Workspaces/DAVE4/RGB_led/Libraries/CMSIS/Include\core_cm0.h **** 
 359:C:/Workspaces/DAVE4/RGB_led/Libraries/CMSIS/Include\core_cm0.h **** /**
 360:C:/Workspaces/DAVE4/RGB_led/Libraries/CMSIS/Include\core_cm0.h ****   \brief  Structure type to access the Nested Vectored Interrupt Controller (NVIC).
 361:C:/Workspaces/DAVE4/RGB_led/Libraries/CMSIS/Include\core_cm0.h ****  */
 362:C:/Workspaces/DAVE4/RGB_led/Libraries/CMSIS/Include\core_cm0.h **** typedef struct
 363:C:/Workspaces/DAVE4/RGB_led/Libraries/CMSIS/Include\core_cm0.h **** {
 364:C:/Workspaces/DAVE4/RGB_led/Libraries/CMSIS/Include\core_cm0.h ****   __IOM uint32_t ISER[1U];               /*!< Offset: 0x000 (R/W)  Interrupt Set Enable Register */
 365:C:/Workspaces/DAVE4/RGB_led/Libraries/CMSIS/Include\core_cm0.h ****         uint32_t RESERVED0[31U];
 366:C:/Workspaces/DAVE4/RGB_led/Libraries/CMSIS/Include\core_cm0.h ****   __IOM uint32_t ICER[1U];               /*!< Offset: 0x080 (R/W)  Interrupt Clear Enable Register 
 367:C:/Workspaces/DAVE4/RGB_led/Libraries/CMSIS/Include\core_cm0.h ****         uint32_t RSERVED1[31U];
 368:C:/Workspaces/DAVE4/RGB_led/Libraries/CMSIS/Include\core_cm0.h ****   __IOM uint32_t ISPR[1U];               /*!< Offset: 0x100 (R/W)  Interrupt Set Pending Register *
 369:C:/Workspaces/DAVE4/RGB_led/Libraries/CMSIS/Include\core_cm0.h ****         uint32_t RESERVED2[31U];
 370:C:/Workspaces/DAVE4/RGB_led/Libraries/CMSIS/Include\core_cm0.h ****   __IOM uint32_t ICPR[1U];               /*!< Offset: 0x180 (R/W)  Interrupt Clear Pending Register
 371:C:/Workspaces/DAVE4/RGB_led/Libraries/CMSIS/Include\core_cm0.h ****         uint32_t RESERVED3[31U];
 372:C:/Workspaces/DAVE4/RGB_led/Libraries/CMSIS/Include\core_cm0.h ****         uint32_t RESERVED4[64U];
 373:C:/Workspaces/DAVE4/RGB_led/Libraries/CMSIS/Include\core_cm0.h ****   __IOM uint32_t IP[8U];                 /*!< Offset: 0x300 (R/W)  Interrupt Priority Register */
 374:C:/Workspaces/DAVE4/RGB_led/Libraries/CMSIS/Include\core_cm0.h **** }  NVIC_Type;
 375:C:/Workspaces/DAVE4/RGB_led/Libraries/CMSIS/Include\core_cm0.h **** 
 376:C:/Workspaces/DAVE4/RGB_led/Libraries/CMSIS/Include\core_cm0.h **** /*@} end of group CMSIS_NVIC */
 377:C:/Workspaces/DAVE4/RGB_led/Libraries/CMSIS/Include\core_cm0.h **** 
 378:C:/Workspaces/DAVE4/RGB_led/Libraries/CMSIS/Include\core_cm0.h **** 
 379:C:/Workspaces/DAVE4/RGB_led/Libraries/CMSIS/Include\core_cm0.h **** /**
 380:C:/Workspaces/DAVE4/RGB_led/Libraries/CMSIS/Include\core_cm0.h ****   \ingroup  CMSIS_core_register
 381:C:/Workspaces/DAVE4/RGB_led/Libraries/CMSIS/Include\core_cm0.h ****   \defgroup CMSIS_SCB     System Control Block (SCB)
 382:C:/Workspaces/DAVE4/RGB_led/Libraries/CMSIS/Include\core_cm0.h ****   \brief    Type definitions for the System Control Block Registers
 383:C:/Workspaces/DAVE4/RGB_led/Libraries/CMSIS/Include\core_cm0.h ****   @{
 384:C:/Workspaces/DAVE4/RGB_led/Libraries/CMSIS/Include\core_cm0.h ****  */
 385:C:/Workspaces/DAVE4/RGB_led/Libraries/CMSIS/Include\core_cm0.h **** 
 386:C:/Workspaces/DAVE4/RGB_led/Libraries/CMSIS/Include\core_cm0.h **** /**
 387:C:/Workspaces/DAVE4/RGB_led/Libraries/CMSIS/Include\core_cm0.h ****   \brief  Structure type to access the System Control Block (SCB).
 388:C:/Workspaces/DAVE4/RGB_led/Libraries/CMSIS/Include\core_cm0.h ****  */
 389:C:/Workspaces/DAVE4/RGB_led/Libraries/CMSIS/Include\core_cm0.h **** typedef struct
 390:C:/Workspaces/DAVE4/RGB_led/Libraries/CMSIS/Include\core_cm0.h **** {
 391:C:/Workspaces/DAVE4/RGB_led/Libraries/CMSIS/Include\core_cm0.h ****   __IM  uint32_t CPUID;                  /*!< Offset: 0x000 (R/ )  CPUID Base Register */
 392:C:/Workspaces/DAVE4/RGB_led/Libraries/CMSIS/Include\core_cm0.h ****   __IOM uint32_t ICSR;                   /*!< Offset: 0x004 (R/W)  Interrupt Control and State Regi
 393:C:/Workspaces/DAVE4/RGB_led/Libraries/CMSIS/Include\core_cm0.h ****         uint32_t RESERVED0;
 394:C:/Workspaces/DAVE4/RGB_led/Libraries/CMSIS/Include\core_cm0.h ****   __IOM uint32_t AIRCR;                  /*!< Offset: 0x00C (R/W)  Application Interrupt and Reset 
 395:C:/Workspaces/DAVE4/RGB_led/Libraries/CMSIS/Include\core_cm0.h ****   __IOM uint32_t SCR;                    /*!< Offset: 0x010 (R/W)  System Control Register */
 396:C:/Workspaces/DAVE4/RGB_led/Libraries/CMSIS/Include\core_cm0.h ****   __IOM uint32_t CCR;                    /*!< Offset: 0x014 (R/W)  Configuration Control Register *
 397:C:/Workspaces/DAVE4/RGB_led/Libraries/CMSIS/Include\core_cm0.h ****         uint32_t RESERVED1;
 398:C:/Workspaces/DAVE4/RGB_led/Libraries/CMSIS/Include\core_cm0.h ****   __IOM uint32_t SHP[2U];                /*!< Offset: 0x01C (R/W)  System Handlers Priority Registe
 399:C:/Workspaces/DAVE4/RGB_led/Libraries/CMSIS/Include\core_cm0.h ****   __IOM uint32_t SHCSR;                  /*!< Offset: 0x024 (R/W)  System Handler Control and State
 400:C:/Workspaces/DAVE4/RGB_led/Libraries/CMSIS/Include\core_cm0.h **** } SCB_Type;
 401:C:/Workspaces/DAVE4/RGB_led/Libraries/CMSIS/Include\core_cm0.h **** 
 402:C:/Workspaces/DAVE4/RGB_led/Libraries/CMSIS/Include\core_cm0.h **** /* SCB CPUID Register Definitions */
 403:C:/Workspaces/DAVE4/RGB_led/Libraries/CMSIS/Include\core_cm0.h **** #define SCB_CPUID_IMPLEMENTER_Pos          24U                                            /*!< SCB 
 404:C:/Workspaces/DAVE4/RGB_led/Libraries/CMSIS/Include\core_cm0.h **** #define SCB_CPUID_IMPLEMENTER_Msk          (0xFFUL << SCB_CPUID_IMPLEMENTER_Pos)          /*!< SCB 
 405:C:/Workspaces/DAVE4/RGB_led/Libraries/CMSIS/Include\core_cm0.h **** 
 406:C:/Workspaces/DAVE4/RGB_led/Libraries/CMSIS/Include\core_cm0.h **** #define SCB_CPUID_VARIANT_Pos              20U                                            /*!< SCB 
 407:C:/Workspaces/DAVE4/RGB_led/Libraries/CMSIS/Include\core_cm0.h **** #define SCB_CPUID_VARIANT_Msk              (0xFUL << SCB_CPUID_VARIANT_Pos)               /*!< SCB 
 408:C:/Workspaces/DAVE4/RGB_led/Libraries/CMSIS/Include\core_cm0.h **** 
 409:C:/Workspaces/DAVE4/RGB_led/Libraries/CMSIS/Include\core_cm0.h **** #define SCB_CPUID_ARCHITECTURE_Pos         16U                                            /*!< SCB 
 410:C:/Workspaces/DAVE4/RGB_led/Libraries/CMSIS/Include\core_cm0.h **** #define SCB_CPUID_ARCHITECTURE_Msk         (0xFUL << SCB_CPUID_ARCHITECTURE_Pos)          /*!< SCB 
 411:C:/Workspaces/DAVE4/RGB_led/Libraries/CMSIS/Include\core_cm0.h **** 
 412:C:/Workspaces/DAVE4/RGB_led/Libraries/CMSIS/Include\core_cm0.h **** #define SCB_CPUID_PARTNO_Pos                4U                                            /*!< SCB 
 413:C:/Workspaces/DAVE4/RGB_led/Libraries/CMSIS/Include\core_cm0.h **** #define SCB_CPUID_PARTNO_Msk               (0xFFFUL << SCB_CPUID_PARTNO_Pos)              /*!< SCB 
 414:C:/Workspaces/DAVE4/RGB_led/Libraries/CMSIS/Include\core_cm0.h **** 
 415:C:/Workspaces/DAVE4/RGB_led/Libraries/CMSIS/Include\core_cm0.h **** #define SCB_CPUID_REVISION_Pos              0U                                            /*!< SCB 
 416:C:/Workspaces/DAVE4/RGB_led/Libraries/CMSIS/Include\core_cm0.h **** #define SCB_CPUID_REVISION_Msk             (0xFUL /*<< SCB_CPUID_REVISION_Pos*/)          /*!< SCB 
 417:C:/Workspaces/DAVE4/RGB_led/Libraries/CMSIS/Include\core_cm0.h **** 
 418:C:/Workspaces/DAVE4/RGB_led/Libraries/CMSIS/Include\core_cm0.h **** /* SCB Interrupt Control State Register Definitions */
 419:C:/Workspaces/DAVE4/RGB_led/Libraries/CMSIS/Include\core_cm0.h **** #define SCB_ICSR_NMIPENDSET_Pos            31U                                            /*!< SCB 
 420:C:/Workspaces/DAVE4/RGB_led/Libraries/CMSIS/Include\core_cm0.h **** #define SCB_ICSR_NMIPENDSET_Msk            (1UL << SCB_ICSR_NMIPENDSET_Pos)               /*!< SCB 
 421:C:/Workspaces/DAVE4/RGB_led/Libraries/CMSIS/Include\core_cm0.h **** 
 422:C:/Workspaces/DAVE4/RGB_led/Libraries/CMSIS/Include\core_cm0.h **** #define SCB_ICSR_PENDSVSET_Pos             28U                                            /*!< SCB 
 423:C:/Workspaces/DAVE4/RGB_led/Libraries/CMSIS/Include\core_cm0.h **** #define SCB_ICSR_PENDSVSET_Msk             (1UL << SCB_ICSR_PENDSVSET_Pos)                /*!< SCB 
 424:C:/Workspaces/DAVE4/RGB_led/Libraries/CMSIS/Include\core_cm0.h **** 
 425:C:/Workspaces/DAVE4/RGB_led/Libraries/CMSIS/Include\core_cm0.h **** #define SCB_ICSR_PENDSVCLR_Pos             27U                                            /*!< SCB 
 426:C:/Workspaces/DAVE4/RGB_led/Libraries/CMSIS/Include\core_cm0.h **** #define SCB_ICSR_PENDSVCLR_Msk             (1UL << SCB_ICSR_PENDSVCLR_Pos)                /*!< SCB 
 427:C:/Workspaces/DAVE4/RGB_led/Libraries/CMSIS/Include\core_cm0.h **** 
 428:C:/Workspaces/DAVE4/RGB_led/Libraries/CMSIS/Include\core_cm0.h **** #define SCB_ICSR_PENDSTSET_Pos             26U                                            /*!< SCB 
 429:C:/Workspaces/DAVE4/RGB_led/Libraries/CMSIS/Include\core_cm0.h **** #define SCB_ICSR_PENDSTSET_Msk             (1UL << SCB_ICSR_PENDSTSET_Pos)                /*!< SCB 
 430:C:/Workspaces/DAVE4/RGB_led/Libraries/CMSIS/Include\core_cm0.h **** 
 431:C:/Workspaces/DAVE4/RGB_led/Libraries/CMSIS/Include\core_cm0.h **** #define SCB_ICSR_PENDSTCLR_Pos             25U                                            /*!< SCB 
 432:C:/Workspaces/DAVE4/RGB_led/Libraries/CMSIS/Include\core_cm0.h **** #define SCB_ICSR_PENDSTCLR_Msk             (1UL << SCB_ICSR_PENDSTCLR_Pos)                /*!< SCB 
 433:C:/Workspaces/DAVE4/RGB_led/Libraries/CMSIS/Include\core_cm0.h **** 
 434:C:/Workspaces/DAVE4/RGB_led/Libraries/CMSIS/Include\core_cm0.h **** #define SCB_ICSR_ISRPREEMPT_Pos            23U                                            /*!< SCB 
 435:C:/Workspaces/DAVE4/RGB_led/Libraries/CMSIS/Include\core_cm0.h **** #define SCB_ICSR_ISRPREEMPT_Msk            (1UL << SCB_ICSR_ISRPREEMPT_Pos)               /*!< SCB 
 436:C:/Workspaces/DAVE4/RGB_led/Libraries/CMSIS/Include\core_cm0.h **** 
 437:C:/Workspaces/DAVE4/RGB_led/Libraries/CMSIS/Include\core_cm0.h **** #define SCB_ICSR_ISRPENDING_Pos            22U                                            /*!< SCB 
 438:C:/Workspaces/DAVE4/RGB_led/Libraries/CMSIS/Include\core_cm0.h **** #define SCB_ICSR_ISRPENDING_Msk            (1UL << SCB_ICSR_ISRPENDING_Pos)               /*!< SCB 
 439:C:/Workspaces/DAVE4/RGB_led/Libraries/CMSIS/Include\core_cm0.h **** 
 440:C:/Workspaces/DAVE4/RGB_led/Libraries/CMSIS/Include\core_cm0.h **** #define SCB_ICSR_VECTPENDING_Pos           12U                                            /*!< SCB 
 441:C:/Workspaces/DAVE4/RGB_led/Libraries/CMSIS/Include\core_cm0.h **** #define SCB_ICSR_VECTPENDING_Msk           (0x1FFUL << SCB_ICSR_VECTPENDING_Pos)          /*!< SCB 
 442:C:/Workspaces/DAVE4/RGB_led/Libraries/CMSIS/Include\core_cm0.h **** 
 443:C:/Workspaces/DAVE4/RGB_led/Libraries/CMSIS/Include\core_cm0.h **** #define SCB_ICSR_VECTACTIVE_Pos             0U                                            /*!< SCB 
 444:C:/Workspaces/DAVE4/RGB_led/Libraries/CMSIS/Include\core_cm0.h **** #define SCB_ICSR_VECTACTIVE_Msk            (0x1FFUL /*<< SCB_ICSR_VECTACTIVE_Pos*/)       /*!< SCB 
 445:C:/Workspaces/DAVE4/RGB_led/Libraries/CMSIS/Include\core_cm0.h **** 
 446:C:/Workspaces/DAVE4/RGB_led/Libraries/CMSIS/Include\core_cm0.h **** /* SCB Application Interrupt and Reset Control Register Definitions */
 447:C:/Workspaces/DAVE4/RGB_led/Libraries/CMSIS/Include\core_cm0.h **** #define SCB_AIRCR_VECTKEY_Pos              16U                                            /*!< SCB 
 448:C:/Workspaces/DAVE4/RGB_led/Libraries/CMSIS/Include\core_cm0.h **** #define SCB_AIRCR_VECTKEY_Msk              (0xFFFFUL << SCB_AIRCR_VECTKEY_Pos)            /*!< SCB 
 449:C:/Workspaces/DAVE4/RGB_led/Libraries/CMSIS/Include\core_cm0.h **** 
 450:C:/Workspaces/DAVE4/RGB_led/Libraries/CMSIS/Include\core_cm0.h **** #define SCB_AIRCR_VECTKEYSTAT_Pos          16U                                            /*!< SCB 
 451:C:/Workspaces/DAVE4/RGB_led/Libraries/CMSIS/Include\core_cm0.h **** #define SCB_AIRCR_VECTKEYSTAT_Msk          (0xFFFFUL << SCB_AIRCR_VECTKEYSTAT_Pos)        /*!< SCB 
 452:C:/Workspaces/DAVE4/RGB_led/Libraries/CMSIS/Include\core_cm0.h **** 
 453:C:/Workspaces/DAVE4/RGB_led/Libraries/CMSIS/Include\core_cm0.h **** #define SCB_AIRCR_ENDIANESS_Pos            15U                                            /*!< SCB 
 454:C:/Workspaces/DAVE4/RGB_led/Libraries/CMSIS/Include\core_cm0.h **** #define SCB_AIRCR_ENDIANESS_Msk            (1UL << SCB_AIRCR_ENDIANESS_Pos)               /*!< SCB 
 455:C:/Workspaces/DAVE4/RGB_led/Libraries/CMSIS/Include\core_cm0.h **** 
 456:C:/Workspaces/DAVE4/RGB_led/Libraries/CMSIS/Include\core_cm0.h **** #define SCB_AIRCR_SYSRESETREQ_Pos           2U                                            /*!< SCB 
 457:C:/Workspaces/DAVE4/RGB_led/Libraries/CMSIS/Include\core_cm0.h **** #define SCB_AIRCR_SYSRESETREQ_Msk          (1UL << SCB_AIRCR_SYSRESETREQ_Pos)             /*!< SCB 
 458:C:/Workspaces/DAVE4/RGB_led/Libraries/CMSIS/Include\core_cm0.h **** 
 459:C:/Workspaces/DAVE4/RGB_led/Libraries/CMSIS/Include\core_cm0.h **** #define SCB_AIRCR_VECTCLRACTIVE_Pos         1U                                            /*!< SCB 
 460:C:/Workspaces/DAVE4/RGB_led/Libraries/CMSIS/Include\core_cm0.h **** #define SCB_AIRCR_VECTCLRACTIVE_Msk        (1UL << SCB_AIRCR_VECTCLRACTIVE_Pos)           /*!< SCB 
 461:C:/Workspaces/DAVE4/RGB_led/Libraries/CMSIS/Include\core_cm0.h **** 
 462:C:/Workspaces/DAVE4/RGB_led/Libraries/CMSIS/Include\core_cm0.h **** /* SCB System Control Register Definitions */
 463:C:/Workspaces/DAVE4/RGB_led/Libraries/CMSIS/Include\core_cm0.h **** #define SCB_SCR_SEVONPEND_Pos               4U                                            /*!< SCB 
 464:C:/Workspaces/DAVE4/RGB_led/Libraries/CMSIS/Include\core_cm0.h **** #define SCB_SCR_SEVONPEND_Msk              (1UL << SCB_SCR_SEVONPEND_Pos)                 /*!< SCB 
 465:C:/Workspaces/DAVE4/RGB_led/Libraries/CMSIS/Include\core_cm0.h **** 
 466:C:/Workspaces/DAVE4/RGB_led/Libraries/CMSIS/Include\core_cm0.h **** #define SCB_SCR_SLEEPDEEP_Pos               2U                                            /*!< SCB 
 467:C:/Workspaces/DAVE4/RGB_led/Libraries/CMSIS/Include\core_cm0.h **** #define SCB_SCR_SLEEPDEEP_Msk              (1UL << SCB_SCR_SLEEPDEEP_Pos)                 /*!< SCB 
 468:C:/Workspaces/DAVE4/RGB_led/Libraries/CMSIS/Include\core_cm0.h **** 
 469:C:/Workspaces/DAVE4/RGB_led/Libraries/CMSIS/Include\core_cm0.h **** #define SCB_SCR_SLEEPONEXIT_Pos             1U                                            /*!< SCB 
 470:C:/Workspaces/DAVE4/RGB_led/Libraries/CMSIS/Include\core_cm0.h **** #define SCB_SCR_SLEEPONEXIT_Msk            (1UL << SCB_SCR_SLEEPONEXIT_Pos)               /*!< SCB 
 471:C:/Workspaces/DAVE4/RGB_led/Libraries/CMSIS/Include\core_cm0.h **** 
 472:C:/Workspaces/DAVE4/RGB_led/Libraries/CMSIS/Include\core_cm0.h **** /* SCB Configuration Control Register Definitions */
 473:C:/Workspaces/DAVE4/RGB_led/Libraries/CMSIS/Include\core_cm0.h **** #define SCB_CCR_STKALIGN_Pos                9U                                            /*!< SCB 
 474:C:/Workspaces/DAVE4/RGB_led/Libraries/CMSIS/Include\core_cm0.h **** #define SCB_CCR_STKALIGN_Msk               (1UL << SCB_CCR_STKALIGN_Pos)                  /*!< SCB 
 475:C:/Workspaces/DAVE4/RGB_led/Libraries/CMSIS/Include\core_cm0.h **** 
 476:C:/Workspaces/DAVE4/RGB_led/Libraries/CMSIS/Include\core_cm0.h **** #define SCB_CCR_UNALIGN_TRP_Pos             3U                                            /*!< SCB 
 477:C:/Workspaces/DAVE4/RGB_led/Libraries/CMSIS/Include\core_cm0.h **** #define SCB_CCR_UNALIGN_TRP_Msk            (1UL << SCB_CCR_UNALIGN_TRP_Pos)               /*!< SCB 
 478:C:/Workspaces/DAVE4/RGB_led/Libraries/CMSIS/Include\core_cm0.h **** 
 479:C:/Workspaces/DAVE4/RGB_led/Libraries/CMSIS/Include\core_cm0.h **** /* SCB System Handler Control and State Register Definitions */
 480:C:/Workspaces/DAVE4/RGB_led/Libraries/CMSIS/Include\core_cm0.h **** #define SCB_SHCSR_SVCALLPENDED_Pos         15U                                            /*!< SCB 
 481:C:/Workspaces/DAVE4/RGB_led/Libraries/CMSIS/Include\core_cm0.h **** #define SCB_SHCSR_SVCALLPENDED_Msk         (1UL << SCB_SHCSR_SVCALLPENDED_Pos)            /*!< SCB 
 482:C:/Workspaces/DAVE4/RGB_led/Libraries/CMSIS/Include\core_cm0.h **** 
 483:C:/Workspaces/DAVE4/RGB_led/Libraries/CMSIS/Include\core_cm0.h **** /*@} end of group CMSIS_SCB */
 484:C:/Workspaces/DAVE4/RGB_led/Libraries/CMSIS/Include\core_cm0.h **** 
 485:C:/Workspaces/DAVE4/RGB_led/Libraries/CMSIS/Include\core_cm0.h **** 
 486:C:/Workspaces/DAVE4/RGB_led/Libraries/CMSIS/Include\core_cm0.h **** /**
 487:C:/Workspaces/DAVE4/RGB_led/Libraries/CMSIS/Include\core_cm0.h ****   \ingroup  CMSIS_core_register
 488:C:/Workspaces/DAVE4/RGB_led/Libraries/CMSIS/Include\core_cm0.h ****   \defgroup CMSIS_SysTick     System Tick Timer (SysTick)
 489:C:/Workspaces/DAVE4/RGB_led/Libraries/CMSIS/Include\core_cm0.h ****   \brief    Type definitions for the System Timer Registers.
 490:C:/Workspaces/DAVE4/RGB_led/Libraries/CMSIS/Include\core_cm0.h ****   @{
 491:C:/Workspaces/DAVE4/RGB_led/Libraries/CMSIS/Include\core_cm0.h ****  */
 492:C:/Workspaces/DAVE4/RGB_led/Libraries/CMSIS/Include\core_cm0.h **** 
 493:C:/Workspaces/DAVE4/RGB_led/Libraries/CMSIS/Include\core_cm0.h **** /**
 494:C:/Workspaces/DAVE4/RGB_led/Libraries/CMSIS/Include\core_cm0.h ****   \brief  Structure type to access the System Timer (SysTick).
 495:C:/Workspaces/DAVE4/RGB_led/Libraries/CMSIS/Include\core_cm0.h ****  */
 496:C:/Workspaces/DAVE4/RGB_led/Libraries/CMSIS/Include\core_cm0.h **** typedef struct
 497:C:/Workspaces/DAVE4/RGB_led/Libraries/CMSIS/Include\core_cm0.h **** {
 498:C:/Workspaces/DAVE4/RGB_led/Libraries/CMSIS/Include\core_cm0.h ****   __IOM uint32_t CTRL;                   /*!< Offset: 0x000 (R/W)  SysTick Control and Status Regis
 499:C:/Workspaces/DAVE4/RGB_led/Libraries/CMSIS/Include\core_cm0.h ****   __IOM uint32_t LOAD;                   /*!< Offset: 0x004 (R/W)  SysTick Reload Value Register */
 500:C:/Workspaces/DAVE4/RGB_led/Libraries/CMSIS/Include\core_cm0.h ****   __IOM uint32_t VAL;                    /*!< Offset: 0x008 (R/W)  SysTick Current Value Register *
 501:C:/Workspaces/DAVE4/RGB_led/Libraries/CMSIS/Include\core_cm0.h ****   __IM  uint32_t CALIB;                  /*!< Offset: 0x00C (R/ )  SysTick Calibration Register */
 502:C:/Workspaces/DAVE4/RGB_led/Libraries/CMSIS/Include\core_cm0.h **** } SysTick_Type;
 503:C:/Workspaces/DAVE4/RGB_led/Libraries/CMSIS/Include\core_cm0.h **** 
 504:C:/Workspaces/DAVE4/RGB_led/Libraries/CMSIS/Include\core_cm0.h **** /* SysTick Control / Status Register Definitions */
 505:C:/Workspaces/DAVE4/RGB_led/Libraries/CMSIS/Include\core_cm0.h **** #define SysTick_CTRL_COUNTFLAG_Pos         16U                                            /*!< SysT
 506:C:/Workspaces/DAVE4/RGB_led/Libraries/CMSIS/Include\core_cm0.h **** #define SysTick_CTRL_COUNTFLAG_Msk         (1UL << SysTick_CTRL_COUNTFLAG_Pos)            /*!< SysT
 507:C:/Workspaces/DAVE4/RGB_led/Libraries/CMSIS/Include\core_cm0.h **** 
 508:C:/Workspaces/DAVE4/RGB_led/Libraries/CMSIS/Include\core_cm0.h **** #define SysTick_CTRL_CLKSOURCE_Pos          2U                                            /*!< SysT
 509:C:/Workspaces/DAVE4/RGB_led/Libraries/CMSIS/Include\core_cm0.h **** #define SysTick_CTRL_CLKSOURCE_Msk         (1UL << SysTick_CTRL_CLKSOURCE_Pos)            /*!< SysT
 510:C:/Workspaces/DAVE4/RGB_led/Libraries/CMSIS/Include\core_cm0.h **** 
 511:C:/Workspaces/DAVE4/RGB_led/Libraries/CMSIS/Include\core_cm0.h **** #define SysTick_CTRL_TICKINT_Pos            1U                                            /*!< SysT
 512:C:/Workspaces/DAVE4/RGB_led/Libraries/CMSIS/Include\core_cm0.h **** #define SysTick_CTRL_TICKINT_Msk           (1UL << SysTick_CTRL_TICKINT_Pos)              /*!< SysT
 513:C:/Workspaces/DAVE4/RGB_led/Libraries/CMSIS/Include\core_cm0.h **** 
 514:C:/Workspaces/DAVE4/RGB_led/Libraries/CMSIS/Include\core_cm0.h **** #define SysTick_CTRL_ENABLE_Pos             0U                                            /*!< SysT
 515:C:/Workspaces/DAVE4/RGB_led/Libraries/CMSIS/Include\core_cm0.h **** #define SysTick_CTRL_ENABLE_Msk            (1UL /*<< SysTick_CTRL_ENABLE_Pos*/)           /*!< SysT
 516:C:/Workspaces/DAVE4/RGB_led/Libraries/CMSIS/Include\core_cm0.h **** 
 517:C:/Workspaces/DAVE4/RGB_led/Libraries/CMSIS/Include\core_cm0.h **** /* SysTick Reload Register Definitions */
 518:C:/Workspaces/DAVE4/RGB_led/Libraries/CMSIS/Include\core_cm0.h **** #define SysTick_LOAD_RELOAD_Pos             0U                                            /*!< SysT
 519:C:/Workspaces/DAVE4/RGB_led/Libraries/CMSIS/Include\core_cm0.h **** #define SysTick_LOAD_RELOAD_Msk            (0xFFFFFFUL /*<< SysTick_LOAD_RELOAD_Pos*/)    /*!< SysT
 520:C:/Workspaces/DAVE4/RGB_led/Libraries/CMSIS/Include\core_cm0.h **** 
 521:C:/Workspaces/DAVE4/RGB_led/Libraries/CMSIS/Include\core_cm0.h **** /* SysTick Current Register Definitions */
 522:C:/Workspaces/DAVE4/RGB_led/Libraries/CMSIS/Include\core_cm0.h **** #define SysTick_VAL_CURRENT_Pos             0U                                            /*!< SysT
 523:C:/Workspaces/DAVE4/RGB_led/Libraries/CMSIS/Include\core_cm0.h **** #define SysTick_VAL_CURRENT_Msk            (0xFFFFFFUL /*<< SysTick_VAL_CURRENT_Pos*/)    /*!< SysT
 524:C:/Workspaces/DAVE4/RGB_led/Libraries/CMSIS/Include\core_cm0.h **** 
 525:C:/Workspaces/DAVE4/RGB_led/Libraries/CMSIS/Include\core_cm0.h **** /* SysTick Calibration Register Definitions */
 526:C:/Workspaces/DAVE4/RGB_led/Libraries/CMSIS/Include\core_cm0.h **** #define SysTick_CALIB_NOREF_Pos            31U                                            /*!< SysT
 527:C:/Workspaces/DAVE4/RGB_led/Libraries/CMSIS/Include\core_cm0.h **** #define SysTick_CALIB_NOREF_Msk            (1UL << SysTick_CALIB_NOREF_Pos)               /*!< SysT
 528:C:/Workspaces/DAVE4/RGB_led/Libraries/CMSIS/Include\core_cm0.h **** 
 529:C:/Workspaces/DAVE4/RGB_led/Libraries/CMSIS/Include\core_cm0.h **** #define SysTick_CALIB_SKEW_Pos             30U                                            /*!< SysT
 530:C:/Workspaces/DAVE4/RGB_led/Libraries/CMSIS/Include\core_cm0.h **** #define SysTick_CALIB_SKEW_Msk             (1UL << SysTick_CALIB_SKEW_Pos)                /*!< SysT
 531:C:/Workspaces/DAVE4/RGB_led/Libraries/CMSIS/Include\core_cm0.h **** 
 532:C:/Workspaces/DAVE4/RGB_led/Libraries/CMSIS/Include\core_cm0.h **** #define SysTick_CALIB_TENMS_Pos             0U                                            /*!< SysT
 533:C:/Workspaces/DAVE4/RGB_led/Libraries/CMSIS/Include\core_cm0.h **** #define SysTick_CALIB_TENMS_Msk            (0xFFFFFFUL /*<< SysTick_CALIB_TENMS_Pos*/)    /*!< SysT
 534:C:/Workspaces/DAVE4/RGB_led/Libraries/CMSIS/Include\core_cm0.h **** 
 535:C:/Workspaces/DAVE4/RGB_led/Libraries/CMSIS/Include\core_cm0.h **** /*@} end of group CMSIS_SysTick */
 536:C:/Workspaces/DAVE4/RGB_led/Libraries/CMSIS/Include\core_cm0.h **** 
 537:C:/Workspaces/DAVE4/RGB_led/Libraries/CMSIS/Include\core_cm0.h **** 
 538:C:/Workspaces/DAVE4/RGB_led/Libraries/CMSIS/Include\core_cm0.h **** /**
 539:C:/Workspaces/DAVE4/RGB_led/Libraries/CMSIS/Include\core_cm0.h ****   \ingroup  CMSIS_core_register
 540:C:/Workspaces/DAVE4/RGB_led/Libraries/CMSIS/Include\core_cm0.h ****   \defgroup CMSIS_CoreDebug       Core Debug Registers (CoreDebug)
 541:C:/Workspaces/DAVE4/RGB_led/Libraries/CMSIS/Include\core_cm0.h ****   \brief    Cortex-M0 Core Debug Registers (DCB registers, SHCSR, and DFSR) are only accessible ove
 542:C:/Workspaces/DAVE4/RGB_led/Libraries/CMSIS/Include\core_cm0.h ****             Therefore they are not covered by the Cortex-M0 header file.
 543:C:/Workspaces/DAVE4/RGB_led/Libraries/CMSIS/Include\core_cm0.h ****   @{
 544:C:/Workspaces/DAVE4/RGB_led/Libraries/CMSIS/Include\core_cm0.h ****  */
 545:C:/Workspaces/DAVE4/RGB_led/Libraries/CMSIS/Include\core_cm0.h **** /*@} end of group CMSIS_CoreDebug */
 546:C:/Workspaces/DAVE4/RGB_led/Libraries/CMSIS/Include\core_cm0.h **** 
 547:C:/Workspaces/DAVE4/RGB_led/Libraries/CMSIS/Include\core_cm0.h **** 
 548:C:/Workspaces/DAVE4/RGB_led/Libraries/CMSIS/Include\core_cm0.h **** /**
 549:C:/Workspaces/DAVE4/RGB_led/Libraries/CMSIS/Include\core_cm0.h ****   \ingroup    CMSIS_core_register
 550:C:/Workspaces/DAVE4/RGB_led/Libraries/CMSIS/Include\core_cm0.h ****   \defgroup   CMSIS_core_bitfield     Core register bit field macros
 551:C:/Workspaces/DAVE4/RGB_led/Libraries/CMSIS/Include\core_cm0.h ****   \brief      Macros for use with bit field definitions (xxx_Pos, xxx_Msk).
 552:C:/Workspaces/DAVE4/RGB_led/Libraries/CMSIS/Include\core_cm0.h ****   @{
 553:C:/Workspaces/DAVE4/RGB_led/Libraries/CMSIS/Include\core_cm0.h ****  */
 554:C:/Workspaces/DAVE4/RGB_led/Libraries/CMSIS/Include\core_cm0.h **** 
 555:C:/Workspaces/DAVE4/RGB_led/Libraries/CMSIS/Include\core_cm0.h **** /**
 556:C:/Workspaces/DAVE4/RGB_led/Libraries/CMSIS/Include\core_cm0.h ****   \brief   Mask and shift a bit field value for use in a register bit range.
 557:C:/Workspaces/DAVE4/RGB_led/Libraries/CMSIS/Include\core_cm0.h ****   \param[in] field  Name of the register bit field.
 558:C:/Workspaces/DAVE4/RGB_led/Libraries/CMSIS/Include\core_cm0.h ****   \param[in] value  Value of the bit field.
 559:C:/Workspaces/DAVE4/RGB_led/Libraries/CMSIS/Include\core_cm0.h ****   \return           Masked and shifted value.
 560:C:/Workspaces/DAVE4/RGB_led/Libraries/CMSIS/Include\core_cm0.h **** */
 561:C:/Workspaces/DAVE4/RGB_led/Libraries/CMSIS/Include\core_cm0.h **** #define _VAL2FLD(field, value)    ((value << field ## _Pos) & field ## _Msk)
 562:C:/Workspaces/DAVE4/RGB_led/Libraries/CMSIS/Include\core_cm0.h **** 
 563:C:/Workspaces/DAVE4/RGB_led/Libraries/CMSIS/Include\core_cm0.h **** /**
 564:C:/Workspaces/DAVE4/RGB_led/Libraries/CMSIS/Include\core_cm0.h ****   \brief     Mask and shift a register value to extract a bit filed value.
 565:C:/Workspaces/DAVE4/RGB_led/Libraries/CMSIS/Include\core_cm0.h ****   \param[in] field  Name of the register bit field.
 566:C:/Workspaces/DAVE4/RGB_led/Libraries/CMSIS/Include\core_cm0.h ****   \param[in] value  Value of register.
 567:C:/Workspaces/DAVE4/RGB_led/Libraries/CMSIS/Include\core_cm0.h ****   \return           Masked and shifted bit field value.
 568:C:/Workspaces/DAVE4/RGB_led/Libraries/CMSIS/Include\core_cm0.h **** */
 569:C:/Workspaces/DAVE4/RGB_led/Libraries/CMSIS/Include\core_cm0.h **** #define _FLD2VAL(field, value)    ((value & field ## _Msk) >> field ## _Pos)
 570:C:/Workspaces/DAVE4/RGB_led/Libraries/CMSIS/Include\core_cm0.h **** 
 571:C:/Workspaces/DAVE4/RGB_led/Libraries/CMSIS/Include\core_cm0.h **** /*@} end of group CMSIS_core_bitfield */
 572:C:/Workspaces/DAVE4/RGB_led/Libraries/CMSIS/Include\core_cm0.h **** 
 573:C:/Workspaces/DAVE4/RGB_led/Libraries/CMSIS/Include\core_cm0.h **** 
 574:C:/Workspaces/DAVE4/RGB_led/Libraries/CMSIS/Include\core_cm0.h **** /**
 575:C:/Workspaces/DAVE4/RGB_led/Libraries/CMSIS/Include\core_cm0.h ****   \ingroup    CMSIS_core_register
 576:C:/Workspaces/DAVE4/RGB_led/Libraries/CMSIS/Include\core_cm0.h ****   \defgroup   CMSIS_core_base     Core Definitions
 577:C:/Workspaces/DAVE4/RGB_led/Libraries/CMSIS/Include\core_cm0.h ****   \brief      Definitions for base addresses, unions, and structures.
 578:C:/Workspaces/DAVE4/RGB_led/Libraries/CMSIS/Include\core_cm0.h ****   @{
 579:C:/Workspaces/DAVE4/RGB_led/Libraries/CMSIS/Include\core_cm0.h ****  */
 580:C:/Workspaces/DAVE4/RGB_led/Libraries/CMSIS/Include\core_cm0.h **** 
 581:C:/Workspaces/DAVE4/RGB_led/Libraries/CMSIS/Include\core_cm0.h **** /* Memory mapping of Cortex-M0 Hardware */
 582:C:/Workspaces/DAVE4/RGB_led/Libraries/CMSIS/Include\core_cm0.h **** #define SCS_BASE            (0xE000E000UL)                            /*!< System Control Space Bas
 583:C:/Workspaces/DAVE4/RGB_led/Libraries/CMSIS/Include\core_cm0.h **** #define SysTick_BASE        (SCS_BASE +  0x0010UL)                    /*!< SysTick Base Address */
 584:C:/Workspaces/DAVE4/RGB_led/Libraries/CMSIS/Include\core_cm0.h **** #define NVIC_BASE           (SCS_BASE +  0x0100UL)                    /*!< NVIC Base Address */
 585:C:/Workspaces/DAVE4/RGB_led/Libraries/CMSIS/Include\core_cm0.h **** #define SCB_BASE            (SCS_BASE +  0x0D00UL)                    /*!< System Control Block Bas
 586:C:/Workspaces/DAVE4/RGB_led/Libraries/CMSIS/Include\core_cm0.h **** 
 587:C:/Workspaces/DAVE4/RGB_led/Libraries/CMSIS/Include\core_cm0.h **** #define SCB                 ((SCB_Type       *)     SCB_BASE      )   /*!< SCB configuration struct
 588:C:/Workspaces/DAVE4/RGB_led/Libraries/CMSIS/Include\core_cm0.h **** #define SysTick             ((SysTick_Type   *)     SysTick_BASE  )   /*!< SysTick configuration st
 589:C:/Workspaces/DAVE4/RGB_led/Libraries/CMSIS/Include\core_cm0.h **** #define NVIC                ((NVIC_Type      *)     NVIC_BASE     )   /*!< NVIC configuration struc
 590:C:/Workspaces/DAVE4/RGB_led/Libraries/CMSIS/Include\core_cm0.h **** 
 591:C:/Workspaces/DAVE4/RGB_led/Libraries/CMSIS/Include\core_cm0.h **** 
 592:C:/Workspaces/DAVE4/RGB_led/Libraries/CMSIS/Include\core_cm0.h **** /*@} */
 593:C:/Workspaces/DAVE4/RGB_led/Libraries/CMSIS/Include\core_cm0.h **** 
 594:C:/Workspaces/DAVE4/RGB_led/Libraries/CMSIS/Include\core_cm0.h **** 
 595:C:/Workspaces/DAVE4/RGB_led/Libraries/CMSIS/Include\core_cm0.h **** 
 596:C:/Workspaces/DAVE4/RGB_led/Libraries/CMSIS/Include\core_cm0.h **** /*******************************************************************************
 597:C:/Workspaces/DAVE4/RGB_led/Libraries/CMSIS/Include\core_cm0.h ****  *                Hardware Abstraction Layer
 598:C:/Workspaces/DAVE4/RGB_led/Libraries/CMSIS/Include\core_cm0.h ****   Core Function Interface contains:
 599:C:/Workspaces/DAVE4/RGB_led/Libraries/CMSIS/Include\core_cm0.h ****   - Core NVIC Functions
 600:C:/Workspaces/DAVE4/RGB_led/Libraries/CMSIS/Include\core_cm0.h ****   - Core SysTick Functions
 601:C:/Workspaces/DAVE4/RGB_led/Libraries/CMSIS/Include\core_cm0.h ****   - Core Register Access Functions
 602:C:/Workspaces/DAVE4/RGB_led/Libraries/CMSIS/Include\core_cm0.h ****  ******************************************************************************/
 603:C:/Workspaces/DAVE4/RGB_led/Libraries/CMSIS/Include\core_cm0.h **** /**
 604:C:/Workspaces/DAVE4/RGB_led/Libraries/CMSIS/Include\core_cm0.h ****   \defgroup CMSIS_Core_FunctionInterface Functions and Instructions Reference
 605:C:/Workspaces/DAVE4/RGB_led/Libraries/CMSIS/Include\core_cm0.h **** */
 606:C:/Workspaces/DAVE4/RGB_led/Libraries/CMSIS/Include\core_cm0.h **** 
 607:C:/Workspaces/DAVE4/RGB_led/Libraries/CMSIS/Include\core_cm0.h **** 
 608:C:/Workspaces/DAVE4/RGB_led/Libraries/CMSIS/Include\core_cm0.h **** 
 609:C:/Workspaces/DAVE4/RGB_led/Libraries/CMSIS/Include\core_cm0.h **** /* ##########################   NVIC functions  #################################### */
 610:C:/Workspaces/DAVE4/RGB_led/Libraries/CMSIS/Include\core_cm0.h **** /**
 611:C:/Workspaces/DAVE4/RGB_led/Libraries/CMSIS/Include\core_cm0.h ****   \ingroup  CMSIS_Core_FunctionInterface
 612:C:/Workspaces/DAVE4/RGB_led/Libraries/CMSIS/Include\core_cm0.h ****   \defgroup CMSIS_Core_NVICFunctions NVIC Functions
 613:C:/Workspaces/DAVE4/RGB_led/Libraries/CMSIS/Include\core_cm0.h ****   \brief    Functions that manage interrupts and exceptions via the NVIC.
 614:C:/Workspaces/DAVE4/RGB_led/Libraries/CMSIS/Include\core_cm0.h ****   @{
 615:C:/Workspaces/DAVE4/RGB_led/Libraries/CMSIS/Include\core_cm0.h ****  */
 616:C:/Workspaces/DAVE4/RGB_led/Libraries/CMSIS/Include\core_cm0.h **** 
 617:C:/Workspaces/DAVE4/RGB_led/Libraries/CMSIS/Include\core_cm0.h **** /* Interrupt Priorities are WORD accessible only under ARMv6M                   */
 618:C:/Workspaces/DAVE4/RGB_led/Libraries/CMSIS/Include\core_cm0.h **** /* The following MACROS handle generation of the register offset and byte masks */
 619:C:/Workspaces/DAVE4/RGB_led/Libraries/CMSIS/Include\core_cm0.h **** #define _BIT_SHIFT(IRQn)         (  ((((uint32_t)(int32_t)(IRQn))         )      &  0x03UL) * 8UL)
 620:C:/Workspaces/DAVE4/RGB_led/Libraries/CMSIS/Include\core_cm0.h **** #define _SHP_IDX(IRQn)           ( (((((uint32_t)(int32_t)(IRQn)) & 0x0FUL)-8UL) >>    2UL)      )
 621:C:/Workspaces/DAVE4/RGB_led/Libraries/CMSIS/Include\core_cm0.h **** #define _IP_IDX(IRQn)            (   (((uint32_t)(int32_t)(IRQn))                >>    2UL)      )
 622:C:/Workspaces/DAVE4/RGB_led/Libraries/CMSIS/Include\core_cm0.h **** 
 623:C:/Workspaces/DAVE4/RGB_led/Libraries/CMSIS/Include\core_cm0.h **** 
 624:C:/Workspaces/DAVE4/RGB_led/Libraries/CMSIS/Include\core_cm0.h **** /**
 625:C:/Workspaces/DAVE4/RGB_led/Libraries/CMSIS/Include\core_cm0.h ****   \brief   Enable External Interrupt
 626:C:/Workspaces/DAVE4/RGB_led/Libraries/CMSIS/Include\core_cm0.h ****   \details Enables a device-specific interrupt in the NVIC interrupt controller.
 627:C:/Workspaces/DAVE4/RGB_led/Libraries/CMSIS/Include\core_cm0.h ****   \param [in]      IRQn  External interrupt number. Value cannot be negative.
 628:C:/Workspaces/DAVE4/RGB_led/Libraries/CMSIS/Include\core_cm0.h ****  */
 629:C:/Workspaces/DAVE4/RGB_led/Libraries/CMSIS/Include\core_cm0.h **** __STATIC_INLINE void NVIC_EnableIRQ(IRQn_Type IRQn)
 630:C:/Workspaces/DAVE4/RGB_led/Libraries/CMSIS/Include\core_cm0.h **** {
  25              	 .loc 1 630 0
  26              	 .cfi_startproc
  27 0000 80B5     	 push {r7,lr}
  28              	.LCFI0:
  29              	 .cfi_def_cfa_offset 8
  30              	 .cfi_offset 7,-8
  31              	 .cfi_offset 14,-4
  32 0002 82B0     	 sub sp,sp,#8
  33              	.LCFI1:
  34              	 .cfi_def_cfa_offset 16
  35 0004 00AF     	 add r7,sp,#0
  36              	.LCFI2:
  37              	 .cfi_def_cfa_register 7
  38 0006 021C     	 mov r2,r0
  39 0008 FB1D     	 add r3,r7,#7
  40 000a 1A70     	 strb r2,[r3]
 631:C:/Workspaces/DAVE4/RGB_led/Libraries/CMSIS/Include\core_cm0.h ****   NVIC->ISER[0U] = (uint32_t)(1UL << (((uint32_t)(int32_t)IRQn) & 0x1FUL));
  41              	 .loc 1 631 0
  42 000c 064B     	 ldr r3,.L2
  43 000e FA1D     	 add r2,r7,#7
  44 0010 1278     	 ldrb r2,[r2]
  45 0012 111C     	 mov r1,r2
  46 0014 1F22     	 mov r2,#31
  47 0016 0A40     	 and r2,r1
  48 0018 0121     	 mov r1,#1
  49 001a 9140     	 lsl r1,r1,r2
  50 001c 0A1C     	 mov r2,r1
  51 001e 1A60     	 str r2,[r3]
 632:C:/Workspaces/DAVE4/RGB_led/Libraries/CMSIS/Include\core_cm0.h **** }
  52              	 .loc 1 632 0
  53 0020 BD46     	 mov sp,r7
  54 0022 02B0     	 add sp,sp,#8
  55              	 
  56 0024 80BD     	 pop {r7,pc}
  57              	.L3:
  58 0026 C046     	 .align 2
  59              	.L2:
  60 0028 00E100E0 	 .word -536813312
  61              	 .cfi_endproc
  62              	.LFE25:
  64              	 .section .text.NVIC_SetPriority,"ax",%progbits
  65              	 .align 2
  66              	 .code 16
  67              	 .thumb_func
  69              	NVIC_SetPriority:
  70              	.LFB30:
 633:C:/Workspaces/DAVE4/RGB_led/Libraries/CMSIS/Include\core_cm0.h **** 
 634:C:/Workspaces/DAVE4/RGB_led/Libraries/CMSIS/Include\core_cm0.h **** 
 635:C:/Workspaces/DAVE4/RGB_led/Libraries/CMSIS/Include\core_cm0.h **** /**
 636:C:/Workspaces/DAVE4/RGB_led/Libraries/CMSIS/Include\core_cm0.h ****   \brief   Disable External Interrupt
 637:C:/Workspaces/DAVE4/RGB_led/Libraries/CMSIS/Include\core_cm0.h ****   \details Disables a device-specific interrupt in the NVIC interrupt controller.
 638:C:/Workspaces/DAVE4/RGB_led/Libraries/CMSIS/Include\core_cm0.h ****   \param [in]      IRQn  External interrupt number. Value cannot be negative.
 639:C:/Workspaces/DAVE4/RGB_led/Libraries/CMSIS/Include\core_cm0.h ****  */
 640:C:/Workspaces/DAVE4/RGB_led/Libraries/CMSIS/Include\core_cm0.h **** __STATIC_INLINE void NVIC_DisableIRQ(IRQn_Type IRQn)
 641:C:/Workspaces/DAVE4/RGB_led/Libraries/CMSIS/Include\core_cm0.h **** {
 642:C:/Workspaces/DAVE4/RGB_led/Libraries/CMSIS/Include\core_cm0.h ****   NVIC->ICER[0U] = (uint32_t)(1UL << (((uint32_t)(int32_t)IRQn) & 0x1FUL));
 643:C:/Workspaces/DAVE4/RGB_led/Libraries/CMSIS/Include\core_cm0.h **** }
 644:C:/Workspaces/DAVE4/RGB_led/Libraries/CMSIS/Include\core_cm0.h **** 
 645:C:/Workspaces/DAVE4/RGB_led/Libraries/CMSIS/Include\core_cm0.h **** 
 646:C:/Workspaces/DAVE4/RGB_led/Libraries/CMSIS/Include\core_cm0.h **** /**
 647:C:/Workspaces/DAVE4/RGB_led/Libraries/CMSIS/Include\core_cm0.h ****   \brief   Get Pending Interrupt
 648:C:/Workspaces/DAVE4/RGB_led/Libraries/CMSIS/Include\core_cm0.h ****   \details Reads the pending register in the NVIC and returns the pending bit for the specified int
 649:C:/Workspaces/DAVE4/RGB_led/Libraries/CMSIS/Include\core_cm0.h ****   \param [in]      IRQn  Interrupt number.
 650:C:/Workspaces/DAVE4/RGB_led/Libraries/CMSIS/Include\core_cm0.h ****   \return             0  Interrupt status is not pending.
 651:C:/Workspaces/DAVE4/RGB_led/Libraries/CMSIS/Include\core_cm0.h ****   \return             1  Interrupt status is pending.
 652:C:/Workspaces/DAVE4/RGB_led/Libraries/CMSIS/Include\core_cm0.h ****  */
 653:C:/Workspaces/DAVE4/RGB_led/Libraries/CMSIS/Include\core_cm0.h **** __STATIC_INLINE uint32_t NVIC_GetPendingIRQ(IRQn_Type IRQn)
 654:C:/Workspaces/DAVE4/RGB_led/Libraries/CMSIS/Include\core_cm0.h **** {
 655:C:/Workspaces/DAVE4/RGB_led/Libraries/CMSIS/Include\core_cm0.h ****   return((uint32_t)(((NVIC->ISPR[0U] & (1UL << (((uint32_t)(int32_t)IRQn) & 0x1FUL))) != 0UL) ? 1UL
 656:C:/Workspaces/DAVE4/RGB_led/Libraries/CMSIS/Include\core_cm0.h **** }
 657:C:/Workspaces/DAVE4/RGB_led/Libraries/CMSIS/Include\core_cm0.h **** 
 658:C:/Workspaces/DAVE4/RGB_led/Libraries/CMSIS/Include\core_cm0.h **** 
 659:C:/Workspaces/DAVE4/RGB_led/Libraries/CMSIS/Include\core_cm0.h **** /**
 660:C:/Workspaces/DAVE4/RGB_led/Libraries/CMSIS/Include\core_cm0.h ****   \brief   Set Pending Interrupt
 661:C:/Workspaces/DAVE4/RGB_led/Libraries/CMSIS/Include\core_cm0.h ****   \details Sets the pending bit of an external interrupt.
 662:C:/Workspaces/DAVE4/RGB_led/Libraries/CMSIS/Include\core_cm0.h ****   \param [in]      IRQn  Interrupt number. Value cannot be negative.
 663:C:/Workspaces/DAVE4/RGB_led/Libraries/CMSIS/Include\core_cm0.h ****  */
 664:C:/Workspaces/DAVE4/RGB_led/Libraries/CMSIS/Include\core_cm0.h **** __STATIC_INLINE void NVIC_SetPendingIRQ(IRQn_Type IRQn)
 665:C:/Workspaces/DAVE4/RGB_led/Libraries/CMSIS/Include\core_cm0.h **** {
 666:C:/Workspaces/DAVE4/RGB_led/Libraries/CMSIS/Include\core_cm0.h ****   NVIC->ISPR[0U] = (uint32_t)(1UL << (((uint32_t)(int32_t)IRQn) & 0x1FUL));
 667:C:/Workspaces/DAVE4/RGB_led/Libraries/CMSIS/Include\core_cm0.h **** }
 668:C:/Workspaces/DAVE4/RGB_led/Libraries/CMSIS/Include\core_cm0.h **** 
 669:C:/Workspaces/DAVE4/RGB_led/Libraries/CMSIS/Include\core_cm0.h **** 
 670:C:/Workspaces/DAVE4/RGB_led/Libraries/CMSIS/Include\core_cm0.h **** /**
 671:C:/Workspaces/DAVE4/RGB_led/Libraries/CMSIS/Include\core_cm0.h ****   \brief   Clear Pending Interrupt
 672:C:/Workspaces/DAVE4/RGB_led/Libraries/CMSIS/Include\core_cm0.h ****   \details Clears the pending bit of an external interrupt.
 673:C:/Workspaces/DAVE4/RGB_led/Libraries/CMSIS/Include\core_cm0.h ****   \param [in]      IRQn  External interrupt number. Value cannot be negative.
 674:C:/Workspaces/DAVE4/RGB_led/Libraries/CMSIS/Include\core_cm0.h ****  */
 675:C:/Workspaces/DAVE4/RGB_led/Libraries/CMSIS/Include\core_cm0.h **** __STATIC_INLINE void NVIC_ClearPendingIRQ(IRQn_Type IRQn)
 676:C:/Workspaces/DAVE4/RGB_led/Libraries/CMSIS/Include\core_cm0.h **** {
 677:C:/Workspaces/DAVE4/RGB_led/Libraries/CMSIS/Include\core_cm0.h ****   NVIC->ICPR[0U] = (uint32_t)(1UL << (((uint32_t)(int32_t)IRQn) & 0x1FUL));
 678:C:/Workspaces/DAVE4/RGB_led/Libraries/CMSIS/Include\core_cm0.h **** }
 679:C:/Workspaces/DAVE4/RGB_led/Libraries/CMSIS/Include\core_cm0.h **** 
 680:C:/Workspaces/DAVE4/RGB_led/Libraries/CMSIS/Include\core_cm0.h **** 
 681:C:/Workspaces/DAVE4/RGB_led/Libraries/CMSIS/Include\core_cm0.h **** /**
 682:C:/Workspaces/DAVE4/RGB_led/Libraries/CMSIS/Include\core_cm0.h ****   \brief   Set Interrupt Priority
 683:C:/Workspaces/DAVE4/RGB_led/Libraries/CMSIS/Include\core_cm0.h ****   \details Sets the priority of an interrupt.
 684:C:/Workspaces/DAVE4/RGB_led/Libraries/CMSIS/Include\core_cm0.h ****   \note    The priority cannot be set for every core interrupt.
 685:C:/Workspaces/DAVE4/RGB_led/Libraries/CMSIS/Include\core_cm0.h ****   \param [in]      IRQn  Interrupt number.
 686:C:/Workspaces/DAVE4/RGB_led/Libraries/CMSIS/Include\core_cm0.h ****   \param [in]  priority  Priority to set.
 687:C:/Workspaces/DAVE4/RGB_led/Libraries/CMSIS/Include\core_cm0.h ****  */
 688:C:/Workspaces/DAVE4/RGB_led/Libraries/CMSIS/Include\core_cm0.h **** __STATIC_INLINE void NVIC_SetPriority(IRQn_Type IRQn, uint32_t priority)
 689:C:/Workspaces/DAVE4/RGB_led/Libraries/CMSIS/Include\core_cm0.h **** {
  71              	 .loc 1 689 0
  72              	 .cfi_startproc
  73 0000 B0B5     	 push {r4,r5,r7,lr}
  74              	.LCFI3:
  75              	 .cfi_def_cfa_offset 16
  76              	 .cfi_offset 4,-16
  77              	 .cfi_offset 5,-12
  78              	 .cfi_offset 7,-8
  79              	 .cfi_offset 14,-4
  80 0002 82B0     	 sub sp,sp,#8
  81              	.LCFI4:
  82              	 .cfi_def_cfa_offset 24
  83 0004 00AF     	 add r7,sp,#0
  84              	.LCFI5:
  85              	 .cfi_def_cfa_register 7
  86 0006 021C     	 mov r2,r0
  87 0008 3960     	 str r1,[r7]
  88 000a FB1D     	 add r3,r7,#7
  89 000c 1A70     	 strb r2,[r3]
 690:C:/Workspaces/DAVE4/RGB_led/Libraries/CMSIS/Include\core_cm0.h ****   if ((int32_t)(IRQn) < 0)
  90              	 .loc 1 690 0
  91 000e FB1D     	 add r3,r7,#7
  92 0010 1B78     	 ldrb r3,[r3]
  93 0012 7F2B     	 cmp r3,#127
  94 0014 2FD9     	 bls .L5
 691:C:/Workspaces/DAVE4/RGB_led/Libraries/CMSIS/Include\core_cm0.h ****   {
 692:C:/Workspaces/DAVE4/RGB_led/Libraries/CMSIS/Include\core_cm0.h ****     SCB->SHP[_SHP_IDX(IRQn)] = ((uint32_t)(SCB->SHP[_SHP_IDX(IRQn)] & ~(0xFFUL << _BIT_SHIFT(IRQn))
  95              	 .loc 1 692 0
  96 0016 2D4C     	 ldr r4,.L7
  97 0018 FB1D     	 add r3,r7,#7
  98 001a 1B78     	 ldrb r3,[r3]
  99 001c 1A1C     	 mov r2,r3
 100 001e 0F23     	 mov r3,#15
 101 0020 1340     	 and r3,r2
 102 0022 083B     	 sub r3,r3,#8
 103 0024 9908     	 lsr r1,r3,#2
 104 0026 294A     	 ldr r2,.L7
 105 0028 FB1D     	 add r3,r7,#7
 106 002a 1B78     	 ldrb r3,[r3]
 107 002c 181C     	 mov r0,r3
 108 002e 0F23     	 mov r3,#15
 109 0030 0340     	 and r3,r0
 110 0032 083B     	 sub r3,r3,#8
 111 0034 9B08     	 lsr r3,r3,#2
 112 0036 0633     	 add r3,r3,#6
 113 0038 9B00     	 lsl r3,r3,#2
 114 003a D318     	 add r3,r2,r3
 115 003c 5B68     	 ldr r3,[r3,#4]
 116 003e FA1D     	 add r2,r7,#7
 117 0040 1278     	 ldrb r2,[r2]
 118 0042 101C     	 mov r0,r2
 119 0044 0322     	 mov r2,#3
 120 0046 0240     	 and r2,r0
 121 0048 D200     	 lsl r2,r2,#3
 122 004a 101C     	 mov r0,r2
 123 004c FF22     	 mov r2,#255
 124 004e 8240     	 lsl r2,r2,r0
 125 0050 D243     	 mvn r2,r2
 126 0052 1A40     	 and r2,r3
 693:C:/Workspaces/DAVE4/RGB_led/Libraries/CMSIS/Include\core_cm0.h ****        (((priority << (8U - __NVIC_PRIO_BITS)) & (uint32_t)0xFFUL) << _BIT_SHIFT(IRQn)));
 127              	 .loc 1 693 0
 128 0054 3B68     	 ldr r3,[r7]
 129 0056 9B01     	 lsl r3,r3,#6
 130 0058 FF20     	 mov r0,#255
 131 005a 0340     	 and r3,r0
 132 005c F81D     	 add r0,r7,#7
 133 005e 0078     	 ldrb r0,[r0]
 134 0060 051C     	 mov r5,r0
 135 0062 0320     	 mov r0,#3
 136 0064 2840     	 and r0,r5
 137 0066 C000     	 lsl r0,r0,#3
 138 0068 8340     	 lsl r3,r3,r0
 692:C:/Workspaces/DAVE4/RGB_led/Libraries/CMSIS/Include\core_cm0.h ****        (((priority << (8U - __NVIC_PRIO_BITS)) & (uint32_t)0xFFUL) << _BIT_SHIFT(IRQn)));
 139              	 .loc 1 692 0
 140 006a 1A43     	 orr r2,r3
 141 006c 8B1D     	 add r3,r1,#6
 142 006e 9B00     	 lsl r3,r3,#2
 143 0070 E318     	 add r3,r4,r3
 144 0072 5A60     	 str r2,[r3,#4]
 145 0074 26E0     	 b .L4
 146              	.L5:
 694:C:/Workspaces/DAVE4/RGB_led/Libraries/CMSIS/Include\core_cm0.h ****   }
 695:C:/Workspaces/DAVE4/RGB_led/Libraries/CMSIS/Include\core_cm0.h ****   else
 696:C:/Workspaces/DAVE4/RGB_led/Libraries/CMSIS/Include\core_cm0.h ****   {
 697:C:/Workspaces/DAVE4/RGB_led/Libraries/CMSIS/Include\core_cm0.h ****     NVIC->IP[_IP_IDX(IRQn)]  = ((uint32_t)(NVIC->IP[_IP_IDX(IRQn)]  & ~(0xFFUL << _BIT_SHIFT(IRQn))
 147              	 .loc 1 697 0
 148 0076 164C     	 ldr r4,.L7+4
 149 0078 FB1D     	 add r3,r7,#7
 150 007a 1B78     	 ldrb r3,[r3]
 151 007c 5BB2     	 sxtb r3,r3
 152 007e 9B08     	 lsr r3,r3,#2
 153 0080 1349     	 ldr r1,.L7+4
 154 0082 FA1D     	 add r2,r7,#7
 155 0084 1278     	 ldrb r2,[r2]
 156 0086 52B2     	 sxtb r2,r2
 157 0088 9208     	 lsr r2,r2,#2
 158 008a C032     	 add r2,r2,#192
 159 008c 9200     	 lsl r2,r2,#2
 160 008e 5258     	 ldr r2,[r2,r1]
 161 0090 F91D     	 add r1,r7,#7
 162 0092 0978     	 ldrb r1,[r1]
 163 0094 081C     	 mov r0,r1
 164 0096 0321     	 mov r1,#3
 165 0098 0140     	 and r1,r0
 166 009a C900     	 lsl r1,r1,#3
 167 009c 081C     	 mov r0,r1
 168 009e FF21     	 mov r1,#255
 169 00a0 8140     	 lsl r1,r1,r0
 170 00a2 C943     	 mvn r1,r1
 171 00a4 1140     	 and r1,r2
 698:C:/Workspaces/DAVE4/RGB_led/Libraries/CMSIS/Include\core_cm0.h ****        (((priority << (8U - __NVIC_PRIO_BITS)) & (uint32_t)0xFFUL) << _BIT_SHIFT(IRQn)));
 172              	 .loc 1 698 0
 173 00a6 3A68     	 ldr r2,[r7]
 174 00a8 9201     	 lsl r2,r2,#6
 175 00aa FF20     	 mov r0,#255
 176 00ac 0240     	 and r2,r0
 177 00ae F81D     	 add r0,r7,#7
 178 00b0 0078     	 ldrb r0,[r0]
 179 00b2 051C     	 mov r5,r0
 180 00b4 0320     	 mov r0,#3
 181 00b6 2840     	 and r0,r5
 182 00b8 C000     	 lsl r0,r0,#3
 183 00ba 8240     	 lsl r2,r2,r0
 697:C:/Workspaces/DAVE4/RGB_led/Libraries/CMSIS/Include\core_cm0.h ****        (((priority << (8U - __NVIC_PRIO_BITS)) & (uint32_t)0xFFUL) << _BIT_SHIFT(IRQn)));
 184              	 .loc 1 697 0
 185 00bc 0A43     	 orr r2,r1
 186 00be C033     	 add r3,r3,#192
 187 00c0 9B00     	 lsl r3,r3,#2
 188 00c2 1A51     	 str r2,[r3,r4]
 189              	.L4:
 699:C:/Workspaces/DAVE4/RGB_led/Libraries/CMSIS/Include\core_cm0.h ****   }
 700:C:/Workspaces/DAVE4/RGB_led/Libraries/CMSIS/Include\core_cm0.h **** }
 190              	 .loc 1 700 0
 191 00c4 BD46     	 mov sp,r7
 192 00c6 02B0     	 add sp,sp,#8
 193              	 
 194 00c8 B0BD     	 pop {r4,r5,r7,pc}
 195              	.L8:
 196 00ca C046     	 .align 2
 197              	.L7:
 198 00cc 00ED00E0 	 .word -536810240
 199 00d0 00E100E0 	 .word -536813312
 200              	 .cfi_endproc
 201              	.LFE30:
 203              	 .section .text.XMC_USIC_CH_SetInputSource,"ax",%progbits
 204              	 .align 2
 205              	 .code 16
 206              	 .thumb_func
 208              	XMC_USIC_CH_SetInputSource:
 209              	.LFB62:
 210              	 .file 2 "C:/Workspaces/DAVE4/RGB_led/Libraries/XMCLib/inc/xmc_usic.h"
   1:C:/Workspaces/DAVE4/RGB_led/Libraries/XMCLib/inc\xmc_usic.h **** /**
   2:C:/Workspaces/DAVE4/RGB_led/Libraries/XMCLib/inc\xmc_usic.h ****  * @file xmc_usic.h
   3:C:/Workspaces/DAVE4/RGB_led/Libraries/XMCLib/inc\xmc_usic.h ****  * @date 2016-04-10
   4:C:/Workspaces/DAVE4/RGB_led/Libraries/XMCLib/inc\xmc_usic.h ****  *
   5:C:/Workspaces/DAVE4/RGB_led/Libraries/XMCLib/inc\xmc_usic.h ****  * @cond
   6:C:/Workspaces/DAVE4/RGB_led/Libraries/XMCLib/inc\xmc_usic.h ****   *************************************************************************************************
   7:C:/Workspaces/DAVE4/RGB_led/Libraries/XMCLib/inc\xmc_usic.h ****  * XMClib v2.1.8 - XMC Peripheral Driver Library 
   8:C:/Workspaces/DAVE4/RGB_led/Libraries/XMCLib/inc\xmc_usic.h ****  *
   9:C:/Workspaces/DAVE4/RGB_led/Libraries/XMCLib/inc\xmc_usic.h ****  * Copyright (c) 2015-2016, Infineon Technologies AG
  10:C:/Workspaces/DAVE4/RGB_led/Libraries/XMCLib/inc\xmc_usic.h ****  * All rights reserved.                        
  11:C:/Workspaces/DAVE4/RGB_led/Libraries/XMCLib/inc\xmc_usic.h ****  *                                             
  12:C:/Workspaces/DAVE4/RGB_led/Libraries/XMCLib/inc\xmc_usic.h ****  * Redistribution and use in source and binary forms, with or without modification,are permitted pr
  13:C:/Workspaces/DAVE4/RGB_led/Libraries/XMCLib/inc\xmc_usic.h ****  * following conditions are met:   
  14:C:/Workspaces/DAVE4/RGB_led/Libraries/XMCLib/inc\xmc_usic.h ****  *                                                                              
  15:C:/Workspaces/DAVE4/RGB_led/Libraries/XMCLib/inc\xmc_usic.h ****  * Redistributions of source code must retain the above copyright notice, this list of conditions a
  16:C:/Workspaces/DAVE4/RGB_led/Libraries/XMCLib/inc\xmc_usic.h ****  * disclaimer.                        
  17:C:/Workspaces/DAVE4/RGB_led/Libraries/XMCLib/inc\xmc_usic.h ****  * 
  18:C:/Workspaces/DAVE4/RGB_led/Libraries/XMCLib/inc\xmc_usic.h ****  * Redistributions in binary form must reproduce the above copyright notice, this list of condition
  19:C:/Workspaces/DAVE4/RGB_led/Libraries/XMCLib/inc\xmc_usic.h ****  * disclaimer in the documentation and/or other materials provided with the distribution.          
  20:C:/Workspaces/DAVE4/RGB_led/Libraries/XMCLib/inc\xmc_usic.h ****  * 
  21:C:/Workspaces/DAVE4/RGB_led/Libraries/XMCLib/inc\xmc_usic.h ****  * Neither the name of the copyright holders nor the names of its contributors may be used to endor
  22:C:/Workspaces/DAVE4/RGB_led/Libraries/XMCLib/inc\xmc_usic.h ****  * products derived from this software without specific prior written permission.                  
  23:C:/Workspaces/DAVE4/RGB_led/Libraries/XMCLib/inc\xmc_usic.h ****  *                                                                              
  24:C:/Workspaces/DAVE4/RGB_led/Libraries/XMCLib/inc\xmc_usic.h ****  * THIS SOFTWARE IS PROVIDED BY THE COPYRIGHT HOLDERS AND CONTRIBUTORS "AS IS" AND ANY EXPRESS OR I
  25:C:/Workspaces/DAVE4/RGB_led/Libraries/XMCLib/inc\xmc_usic.h ****  * INCLUDING, BUT NOT LIMITED TO, THE IMPLIED WARRANTIES OF MERCHANTABILITY AND FITNESS FOR A PARTI
  26:C:/Workspaces/DAVE4/RGB_led/Libraries/XMCLib/inc\xmc_usic.h ****  * DISCLAIMED. IN NO EVENT SHALL THE COPYRIGHT HOLDER OR CONTRIBUTORS BE LIABLE  FOR ANY DIRECT, IN
  27:C:/Workspaces/DAVE4/RGB_led/Libraries/XMCLib/inc\xmc_usic.h ****  * SPECIAL, EXEMPLARY, OR CONSEQUENTIAL DAMAGES (INCLUDING, BUT NOT LIMITED TO, PROCUREMENT OF SUBS
  28:C:/Workspaces/DAVE4/RGB_led/Libraries/XMCLib/inc\xmc_usic.h ****  * SERVICES; LOSS OF USE, DATA, OR PROFITS; OR BUSINESS INTERRUPTION) HOWEVER CAUSED AND ON ANY THE
  29:C:/Workspaces/DAVE4/RGB_led/Libraries/XMCLib/inc\xmc_usic.h ****  * WHETHER IN CONTRACT, STRICT LIABILITY,OR TORT (INCLUDING NEGLIGENCE OR OTHERWISE) ARISING IN ANY
  30:C:/Workspaces/DAVE4/RGB_led/Libraries/XMCLib/inc\xmc_usic.h ****  * OF THIS SOFTWARE, EVEN IF ADVISED OF THE POSSIBILITY OF SUCH DAMAGE.                            
  31:C:/Workspaces/DAVE4/RGB_led/Libraries/XMCLib/inc\xmc_usic.h ****  *                                                                              
  32:C:/Workspaces/DAVE4/RGB_led/Libraries/XMCLib/inc\xmc_usic.h ****  * To improve the quality of the software, users are encouraged to share modifications, enhancement
  33:C:/Workspaces/DAVE4/RGB_led/Libraries/XMCLib/inc\xmc_usic.h ****  * Infineon Technologies AG dave@infineon.com).                                                    
  34:C:/Workspaces/DAVE4/RGB_led/Libraries/XMCLib/inc\xmc_usic.h ****  **************************************************************************************************
  35:C:/Workspaces/DAVE4/RGB_led/Libraries/XMCLib/inc\xmc_usic.h ****  *
  36:C:/Workspaces/DAVE4/RGB_led/Libraries/XMCLib/inc\xmc_usic.h ****  * Change History
  37:C:/Workspaces/DAVE4/RGB_led/Libraries/XMCLib/inc\xmc_usic.h ****  * --------------
  38:C:/Workspaces/DAVE4/RGB_led/Libraries/XMCLib/inc\xmc_usic.h ****  *
  39:C:/Workspaces/DAVE4/RGB_led/Libraries/XMCLib/inc\xmc_usic.h ****  * 2015-02-20:
  40:C:/Workspaces/DAVE4/RGB_led/Libraries/XMCLib/inc\xmc_usic.h ****  *     - Initial draft<br>
  41:C:/Workspaces/DAVE4/RGB_led/Libraries/XMCLib/inc\xmc_usic.h ****  *     - Documentation improved <br>
  42:C:/Workspaces/DAVE4/RGB_led/Libraries/XMCLib/inc\xmc_usic.h ****  *
  43:C:/Workspaces/DAVE4/RGB_led/Libraries/XMCLib/inc\xmc_usic.h ****  * 2015-05-08:
  44:C:/Workspaces/DAVE4/RGB_led/Libraries/XMCLib/inc\xmc_usic.h ****  *     - Added XMC_USIC_CH_SetInputTriggerCombinationMode() and XMC_USIC_CH_SetTransmitBufferStatus
  45:C:/Workspaces/DAVE4/RGB_led/Libraries/XMCLib/inc\xmc_usic.h ****  *      
  46:C:/Workspaces/DAVE4/RGB_led/Libraries/XMCLib/inc\xmc_usic.h ****  * 2015-06-20:
  47:C:/Workspaces/DAVE4/RGB_led/Libraries/XMCLib/inc\xmc_usic.h ****  *     - Removed version macros and declaration of GetDriverVersion API
  48:C:/Workspaces/DAVE4/RGB_led/Libraries/XMCLib/inc\xmc_usic.h ****  * 
  49:C:/Workspaces/DAVE4/RGB_led/Libraries/XMCLib/inc\xmc_usic.h ****  * 2015-08-17:
  50:C:/Workspaces/DAVE4/RGB_led/Libraries/XMCLib/inc\xmc_usic.h ****  *     - Bug fixed in XMC_USIC_CH_SetTransmitBufferStatus API. OR operator removed.
  51:C:/Workspaces/DAVE4/RGB_led/Libraries/XMCLib/inc\xmc_usic.h ****  *
  52:C:/Workspaces/DAVE4/RGB_led/Libraries/XMCLib/inc\xmc_usic.h ****  * 2015-08-24:
  53:C:/Workspaces/DAVE4/RGB_led/Libraries/XMCLib/inc\xmc_usic.h ****  *     - Added APIs for enabling/disabling delay compensation XMC_USIC_CH_DisableDelayCompensation(
  54:C:/Workspaces/DAVE4/RGB_led/Libraries/XMCLib/inc\xmc_usic.h ****  *       XMC_USIC_CH_DisableDelayCompensation()
  55:C:/Workspaces/DAVE4/RGB_led/Libraries/XMCLib/inc\xmc_usic.h ****  *
  56:C:/Workspaces/DAVE4/RGB_led/Libraries/XMCLib/inc\xmc_usic.h ****  * 2015-08-25:
  57:C:/Workspaces/DAVE4/RGB_led/Libraries/XMCLib/inc\xmc_usic.h ****  *     - Added APIs for defining if the data shift unit input is derived
  58:C:/Workspaces/DAVE4/RGB_led/Libraries/XMCLib/inc\xmc_usic.h ****  *       from the input data path DXn or from the selected protocol pre-processors: XMC_USIC_CH_Con
  59:C:/Workspaces/DAVE4/RGB_led/Libraries/XMCLib/inc\xmc_usic.h ****  *       and XMC_USIC_CH_ConnectInputDataShiftToDataInput()
  60:C:/Workspaces/DAVE4/RGB_led/Libraries/XMCLib/inc\xmc_usic.h ****  *
  61:C:/Workspaces/DAVE4/RGB_led/Libraries/XMCLib/inc\xmc_usic.h ****  * 2015-08-27:
  62:C:/Workspaces/DAVE4/RGB_led/Libraries/XMCLib/inc\xmc_usic.h ****  *     - Fixed bug in XMC_USIC_CH_BRG_CLOCK_SOURCE_DX1T value.
  63:C:/Workspaces/DAVE4/RGB_led/Libraries/XMCLib/inc\xmc_usic.h ****  *     - Added APIs for direct TBUF access: XMC_USIC_CH_WriteToTBUF() and XMC_USIC_CH_WriteToTBUFTC
  64:C:/Workspaces/DAVE4/RGB_led/Libraries/XMCLib/inc\xmc_usic.h ****  *     - Added APIs for external input for BRG configuration:XMC_USIC_CH_ConfigExternalInputSignalT
  65:C:/Workspaces/DAVE4/RGB_led/Libraries/XMCLib/inc\xmc_usic.h ****  *
  66:C:/Workspaces/DAVE4/RGB_led/Libraries/XMCLib/inc\xmc_usic.h ****  * 2015-08-28:
  67:C:/Workspaces/DAVE4/RGB_led/Libraries/XMCLib/inc\xmc_usic.h ****  *     - Added API for enabling the transfer trigger unit to set bit TCSR.TE if the trigger signal 
  68:C:/Workspaces/DAVE4/RGB_led/Libraries/XMCLib/inc\xmc_usic.h ****  *       Clear to Send (CTS) signal: XMC_USIC_CH_EnableTBUFDataValidTrigger() and XMC_USIC_CH_Disab
  69:C:/Workspaces/DAVE4/RGB_led/Libraries/XMCLib/inc\xmc_usic.h ****  *
  70:C:/Workspaces/DAVE4/RGB_led/Libraries/XMCLib/inc\xmc_usic.h ****  * 2016-03-09:
  71:C:/Workspaces/DAVE4/RGB_led/Libraries/XMCLib/inc\xmc_usic.h ****  *     - Optimization of write only registers
  72:C:/Workspaces/DAVE4/RGB_led/Libraries/XMCLib/inc\xmc_usic.h ****  *
  73:C:/Workspaces/DAVE4/RGB_led/Libraries/XMCLib/inc\xmc_usic.h ****  * 2016-04-10:
  74:C:/Workspaces/DAVE4/RGB_led/Libraries/XMCLib/inc\xmc_usic.h ****  *     - Added an API to put the data into FIFO when hardware port control is enabled: XMC_USIC_CH_
  75:C:/Workspaces/DAVE4/RGB_led/Libraries/XMCLib/inc\xmc_usic.h ****  *
  76:C:/Workspaces/DAVE4/RGB_led/Libraries/XMCLib/inc\xmc_usic.h ****  * @endcond
  77:C:/Workspaces/DAVE4/RGB_led/Libraries/XMCLib/inc\xmc_usic.h ****  *
  78:C:/Workspaces/DAVE4/RGB_led/Libraries/XMCLib/inc\xmc_usic.h ****  */
  79:C:/Workspaces/DAVE4/RGB_led/Libraries/XMCLib/inc\xmc_usic.h **** 
  80:C:/Workspaces/DAVE4/RGB_led/Libraries/XMCLib/inc\xmc_usic.h **** #ifndef XMC_USIC_H
  81:C:/Workspaces/DAVE4/RGB_led/Libraries/XMCLib/inc\xmc_usic.h **** #define XMC_USIC_H
  82:C:/Workspaces/DAVE4/RGB_led/Libraries/XMCLib/inc\xmc_usic.h **** /*******************************************************************************
  83:C:/Workspaces/DAVE4/RGB_led/Libraries/XMCLib/inc\xmc_usic.h ****  * HEADER FILES
  84:C:/Workspaces/DAVE4/RGB_led/Libraries/XMCLib/inc\xmc_usic.h ****  *******************************************************************************/
  85:C:/Workspaces/DAVE4/RGB_led/Libraries/XMCLib/inc\xmc_usic.h **** 
  86:C:/Workspaces/DAVE4/RGB_led/Libraries/XMCLib/inc\xmc_usic.h **** #include "xmc_common.h"
  87:C:/Workspaces/DAVE4/RGB_led/Libraries/XMCLib/inc\xmc_usic.h **** 
  88:C:/Workspaces/DAVE4/RGB_led/Libraries/XMCLib/inc\xmc_usic.h **** /**
  89:C:/Workspaces/DAVE4/RGB_led/Libraries/XMCLib/inc\xmc_usic.h ****  * @addtogroup XMClib XMC Peripheral Library
  90:C:/Workspaces/DAVE4/RGB_led/Libraries/XMCLib/inc\xmc_usic.h ****  * @{
  91:C:/Workspaces/DAVE4/RGB_led/Libraries/XMCLib/inc\xmc_usic.h ****  */
  92:C:/Workspaces/DAVE4/RGB_led/Libraries/XMCLib/inc\xmc_usic.h **** 
  93:C:/Workspaces/DAVE4/RGB_led/Libraries/XMCLib/inc\xmc_usic.h **** /**
  94:C:/Workspaces/DAVE4/RGB_led/Libraries/XMCLib/inc\xmc_usic.h ****  * @addtogroup USIC
  95:C:/Workspaces/DAVE4/RGB_led/Libraries/XMCLib/inc\xmc_usic.h ****  * @brief Universal Serial Interface Channel(USIC) driver for serial communication.
  96:C:/Workspaces/DAVE4/RGB_led/Libraries/XMCLib/inc\xmc_usic.h ****  *
  97:C:/Workspaces/DAVE4/RGB_led/Libraries/XMCLib/inc\xmc_usic.h ****  * The Universal Serial Interface Channel(USIC) module is a flexible interface module
  98:C:/Workspaces/DAVE4/RGB_led/Libraries/XMCLib/inc\xmc_usic.h ****  * covering several serial communication protocols. A USIC module contains two
  99:C:/Workspaces/DAVE4/RGB_led/Libraries/XMCLib/inc\xmc_usic.h ****  * independent communication channels named USICx_CH0 and USICx_CH1, with x
 100:C:/Workspaces/DAVE4/RGB_led/Libraries/XMCLib/inc\xmc_usic.h ****  * being the number of the USIC module. The user can program, during run-time, which protocol will 
 101:C:/Workspaces/DAVE4/RGB_led/Libraries/XMCLib/inc\xmc_usic.h ****  * by each communication channel and which pins are used.
 102:C:/Workspaces/DAVE4/RGB_led/Libraries/XMCLib/inc\xmc_usic.h ****  * The driver provides APIs, configuration structures and enumerations to configure common features
 103:C:/Workspaces/DAVE4/RGB_led/Libraries/XMCLib/inc\xmc_usic.h ****  * communication protocols.
 104:C:/Workspaces/DAVE4/RGB_led/Libraries/XMCLib/inc\xmc_usic.h ****  * 
 105:C:/Workspaces/DAVE4/RGB_led/Libraries/XMCLib/inc\xmc_usic.h ****  * USIC driver features:
 106:C:/Workspaces/DAVE4/RGB_led/Libraries/XMCLib/inc\xmc_usic.h ****  * -# Allows configuration of FIFO for transmit and receive functions.
 107:C:/Workspaces/DAVE4/RGB_led/Libraries/XMCLib/inc\xmc_usic.h ****  * -# Provides a structure type XMC_USIC_CH_t to represent the USIC channel registers in a programm
 108:C:/Workspaces/DAVE4/RGB_led/Libraries/XMCLib/inc\xmc_usic.h ****  friendly format.
 109:C:/Workspaces/DAVE4/RGB_led/Libraries/XMCLib/inc\xmc_usic.h ****  * -# Allows configuration of automatic update for frame length, word length, slave select or slave
 110:C:/Workspaces/DAVE4/RGB_led/Libraries/XMCLib/inc\xmc_usic.h ****  * -# Allows transmission of data to FIFO using XMC_USIC_CH_TXFIFO_PutData() and XMC_USIC_CH_TXFIFO
 111:C:/Workspaces/DAVE4/RGB_led/Libraries/XMCLib/inc\xmc_usic.h ****  * -# Allows reading of received data in FIFO using XMC_USIC_CH_RXFIFO_GetData()
 112:C:/Workspaces/DAVE4/RGB_led/Libraries/XMCLib/inc\xmc_usic.h ****  * -# Allows configuration of baudrate using XMC_USIC_CH_SetBaudrate()
 113:C:/Workspaces/DAVE4/RGB_led/Libraries/XMCLib/inc\xmc_usic.h ****  * -# Provides API to trigger interrupts using XMC_USIC_CH_TriggerServiceRequest()
 114:C:/Workspaces/DAVE4/RGB_led/Libraries/XMCLib/inc\xmc_usic.h ****  * @{
 115:C:/Workspaces/DAVE4/RGB_led/Libraries/XMCLib/inc\xmc_usic.h ****  */
 116:C:/Workspaces/DAVE4/RGB_led/Libraries/XMCLib/inc\xmc_usic.h **** 
 117:C:/Workspaces/DAVE4/RGB_led/Libraries/XMCLib/inc\xmc_usic.h **** /*******************************************************************************
 118:C:/Workspaces/DAVE4/RGB_led/Libraries/XMCLib/inc\xmc_usic.h ****  * MACROS
 119:C:/Workspaces/DAVE4/RGB_led/Libraries/XMCLib/inc\xmc_usic.h ****  *******************************************************************************/
 120:C:/Workspaces/DAVE4/RGB_led/Libraries/XMCLib/inc\xmc_usic.h **** 
 121:C:/Workspaces/DAVE4/RGB_led/Libraries/XMCLib/inc\xmc_usic.h **** #define XMC_USIC0 ((XMC_USIC_t *)USIC0_BASE)			/**< USIC0 module base address */
 122:C:/Workspaces/DAVE4/RGB_led/Libraries/XMCLib/inc\xmc_usic.h **** #define XMC_USIC0_CH0 ((XMC_USIC_CH_t *)USIC0_CH0_BASE)	/**< USIC0 channel 0 base address */
 123:C:/Workspaces/DAVE4/RGB_led/Libraries/XMCLib/inc\xmc_usic.h **** #define XMC_USIC0_CH1 ((XMC_USIC_CH_t *)USIC0_CH1_BASE)	/**< USIC0 channel 1 base address */
 124:C:/Workspaces/DAVE4/RGB_led/Libraries/XMCLib/inc\xmc_usic.h **** 
 125:C:/Workspaces/DAVE4/RGB_led/Libraries/XMCLib/inc\xmc_usic.h **** #if defined(USIC1)
 126:C:/Workspaces/DAVE4/RGB_led/Libraries/XMCLib/inc\xmc_usic.h **** #define XMC_USIC1 ((XMC_USIC_t *)USIC1_BASE)			/**< USIC1 module base address */
 127:C:/Workspaces/DAVE4/RGB_led/Libraries/XMCLib/inc\xmc_usic.h **** #define XMC_USIC1_CH0 ((XMC_USIC_CH_t *)USIC1_CH0_BASE)	/**< USIC1 channel 0 base address */
 128:C:/Workspaces/DAVE4/RGB_led/Libraries/XMCLib/inc\xmc_usic.h **** #define XMC_USIC1_CH1 ((XMC_USIC_CH_t *)USIC1_CH1_BASE)	/**< USIC1 channel 1 base address */
 129:C:/Workspaces/DAVE4/RGB_led/Libraries/XMCLib/inc\xmc_usic.h **** #endif
 130:C:/Workspaces/DAVE4/RGB_led/Libraries/XMCLib/inc\xmc_usic.h **** 
 131:C:/Workspaces/DAVE4/RGB_led/Libraries/XMCLib/inc\xmc_usic.h **** #if defined(USIC2)
 132:C:/Workspaces/DAVE4/RGB_led/Libraries/XMCLib/inc\xmc_usic.h **** #define XMC_USIC2 ((XMC_USIC_t *)USIC2_BASE)			/**< USIC2 module base address */
 133:C:/Workspaces/DAVE4/RGB_led/Libraries/XMCLib/inc\xmc_usic.h **** #define XMC_USIC2_CH0 ((XMC_USIC_CH_t *)USIC2_CH0_BASE)	/**< USIC2 channel 0 base address */
 134:C:/Workspaces/DAVE4/RGB_led/Libraries/XMCLib/inc\xmc_usic.h **** #define XMC_USIC2_CH1 ((XMC_USIC_CH_t *)USIC2_CH1_BASE)	/**< USIC2 channel 1 base address */
 135:C:/Workspaces/DAVE4/RGB_led/Libraries/XMCLib/inc\xmc_usic.h **** #endif
 136:C:/Workspaces/DAVE4/RGB_led/Libraries/XMCLib/inc\xmc_usic.h **** 
 137:C:/Workspaces/DAVE4/RGB_led/Libraries/XMCLib/inc\xmc_usic.h **** #define USIC_CH_DXCR_DSEL_Msk  USIC_CH_DX0CR_DSEL_Msk   /**< Common mask for DSEL bitfield mask in 
 138:C:/Workspaces/DAVE4/RGB_led/Libraries/XMCLib/inc\xmc_usic.h **** #define USIC_CH_DXCR_DSEL_Pos  USIC_CH_DX0CR_DSEL_Pos   /**< Common mask for DSEL bitfield position
 139:C:/Workspaces/DAVE4/RGB_led/Libraries/XMCLib/inc\xmc_usic.h **** #define USIC_CH_DXCR_SFSEL_Pos USIC_CH_DX0CR_SFSEL_Pos  /**< Common mask for SFSEL bitfield positio
 140:C:/Workspaces/DAVE4/RGB_led/Libraries/XMCLib/inc\xmc_usic.h **** #define USIC_CH_DXCR_SFSEL_Msk USIC_CH_DX0CR_SFSEL_Msk  /**< Common mask for SFSEL bitfield mask in
 141:C:/Workspaces/DAVE4/RGB_led/Libraries/XMCLib/inc\xmc_usic.h **** #define USIC_CH_DXCR_DPOL_Msk  USIC_CH_DX0CR_DPOL_Msk   /**< Common mask for DPOL bitfield mask in 
 142:C:/Workspaces/DAVE4/RGB_led/Libraries/XMCLib/inc\xmc_usic.h **** #define USIC_CH_DXCR_DFEN_Msk  USIC_CH_DX0CR_DFEN_Msk   /**< Common mask for DFEN bitfield mask in 
 143:C:/Workspaces/DAVE4/RGB_led/Libraries/XMCLib/inc\xmc_usic.h **** #define USIC_CH_DXCR_DSEN_Msk  USIC_CH_DX0CR_DSEN_Msk   /**< Common mask for DSEN bitfield mask in 
 144:C:/Workspaces/DAVE4/RGB_led/Libraries/XMCLib/inc\xmc_usic.h **** #define USIC_CH_DXCR_CM_Pos    USIC_CH_DX0CR_CM_Pos     /**< Common mask for CM bitfield position i
 145:C:/Workspaces/DAVE4/RGB_led/Libraries/XMCLib/inc\xmc_usic.h **** #define USIC_CH_DXCR_CM_Msk    USIC_CH_DX0CR_CM_Msk     /**< Common mask for CM bitfield mask in DX
 146:C:/Workspaces/DAVE4/RGB_led/Libraries/XMCLib/inc\xmc_usic.h **** #define USIC_CH_DXCR_INSW_Msk  USIC_CH_DX0CR_INSW_Msk   /**< Common mask for INSW bitfield mask in 
 147:C:/Workspaces/DAVE4/RGB_led/Libraries/XMCLib/inc\xmc_usic.h **** #define USIC_CH_DXCR_INSW_pos  USIC_CH_DX0CR_INSW_Pos   /**< Common mask for INSW bitfield position
 148:C:/Workspaces/DAVE4/RGB_led/Libraries/XMCLib/inc\xmc_usic.h **** 
 149:C:/Workspaces/DAVE4/RGB_led/Libraries/XMCLib/inc\xmc_usic.h **** #if UC_FAMILY == XMC1
 150:C:/Workspaces/DAVE4/RGB_led/Libraries/XMCLib/inc\xmc_usic.h ****  #include "xmc1_usic_map.h"
 151:C:/Workspaces/DAVE4/RGB_led/Libraries/XMCLib/inc\xmc_usic.h **** #endif
 152:C:/Workspaces/DAVE4/RGB_led/Libraries/XMCLib/inc\xmc_usic.h **** 
 153:C:/Workspaces/DAVE4/RGB_led/Libraries/XMCLib/inc\xmc_usic.h **** #if UC_FAMILY == XMC4
 154:C:/Workspaces/DAVE4/RGB_led/Libraries/XMCLib/inc\xmc_usic.h ****  #include "xmc4_usic_map.h"
 155:C:/Workspaces/DAVE4/RGB_led/Libraries/XMCLib/inc\xmc_usic.h **** #endif
 156:C:/Workspaces/DAVE4/RGB_led/Libraries/XMCLib/inc\xmc_usic.h **** 
 157:C:/Workspaces/DAVE4/RGB_led/Libraries/XMCLib/inc\xmc_usic.h **** /*******************************************************************************
 158:C:/Workspaces/DAVE4/RGB_led/Libraries/XMCLib/inc\xmc_usic.h ****  * ENUMS
 159:C:/Workspaces/DAVE4/RGB_led/Libraries/XMCLib/inc\xmc_usic.h ****  *******************************************************************************/
 160:C:/Workspaces/DAVE4/RGB_led/Libraries/XMCLib/inc\xmc_usic.h **** 
 161:C:/Workspaces/DAVE4/RGB_led/Libraries/XMCLib/inc\xmc_usic.h **** /**
 162:C:/Workspaces/DAVE4/RGB_led/Libraries/XMCLib/inc\xmc_usic.h ****  * USIC channel driver status
 163:C:/Workspaces/DAVE4/RGB_led/Libraries/XMCLib/inc\xmc_usic.h ****  */
 164:C:/Workspaces/DAVE4/RGB_led/Libraries/XMCLib/inc\xmc_usic.h **** typedef enum XMC_USIC_CH_STATUS
 165:C:/Workspaces/DAVE4/RGB_led/Libraries/XMCLib/inc\xmc_usic.h **** {
 166:C:/Workspaces/DAVE4/RGB_led/Libraries/XMCLib/inc\xmc_usic.h ****   XMC_USIC_CH_STATUS_OK,    /**< USIC driver status : OK */
 167:C:/Workspaces/DAVE4/RGB_led/Libraries/XMCLib/inc\xmc_usic.h ****   XMC_USIC_CH_STATUS_ERROR, /**< USIC driver status : ERROR */
 168:C:/Workspaces/DAVE4/RGB_led/Libraries/XMCLib/inc\xmc_usic.h ****   XMC_USIC_CH_STATUS_BUSY   /**< USIC driver status : BUSY */
 169:C:/Workspaces/DAVE4/RGB_led/Libraries/XMCLib/inc\xmc_usic.h **** } XMC_USIC_CH_STATUS_t;
 170:C:/Workspaces/DAVE4/RGB_led/Libraries/XMCLib/inc\xmc_usic.h **** 
 171:C:/Workspaces/DAVE4/RGB_led/Libraries/XMCLib/inc\xmc_usic.h **** /**
 172:C:/Workspaces/DAVE4/RGB_led/Libraries/XMCLib/inc\xmc_usic.h **** * USIC channel kernel mode
 173:C:/Workspaces/DAVE4/RGB_led/Libraries/XMCLib/inc\xmc_usic.h **** */
 174:C:/Workspaces/DAVE4/RGB_led/Libraries/XMCLib/inc\xmc_usic.h **** typedef enum XMC_USIC_CH_KERNEL_MODE
 175:C:/Workspaces/DAVE4/RGB_led/Libraries/XMCLib/inc\xmc_usic.h **** {
 176:C:/Workspaces/DAVE4/RGB_led/Libraries/XMCLib/inc\xmc_usic.h ****   XMC_USIC_CH_KERNEL_MODE_RUN_0  = 0x0UL,  /**< Run mode 0 (transmission and reception possible)*/
 177:C:/Workspaces/DAVE4/RGB_led/Libraries/XMCLib/inc\xmc_usic.h ****   XMC_USIC_CH_KERNEL_MODE_RUN_1  = 0x1UL << USIC_CH_KSCFG_NOMCFG_Pos,  /**< Run mode 1 (transmissio
 178:C:/Workspaces/DAVE4/RGB_led/Libraries/XMCLib/inc\xmc_usic.h ****   XMC_USIC_CH_KERNEL_MODE_STOP_0 = 0x2UL << USIC_CH_KSCFG_NOMCFG_Pos,  /**< Stop mode 0 (no transmi
 179:C:/Workspaces/DAVE4/RGB_led/Libraries/XMCLib/inc\xmc_usic.h ****   XMC_USIC_CH_KERNEL_MODE_STOP_1 = 0x3UL << USIC_CH_KSCFG_NOMCFG_Pos   /**< Stop mode 1 (both trans
 180:C:/Workspaces/DAVE4/RGB_led/Libraries/XMCLib/inc\xmc_usic.h **** } XMC_USIC_CH_KERNEL_MODE_t;
 181:C:/Workspaces/DAVE4/RGB_led/Libraries/XMCLib/inc\xmc_usic.h **** 
 182:C:/Workspaces/DAVE4/RGB_led/Libraries/XMCLib/inc\xmc_usic.h **** /**
 183:C:/Workspaces/DAVE4/RGB_led/Libraries/XMCLib/inc\xmc_usic.h ****  * USIC channel operating mode
 184:C:/Workspaces/DAVE4/RGB_led/Libraries/XMCLib/inc\xmc_usic.h ****  */
 185:C:/Workspaces/DAVE4/RGB_led/Libraries/XMCLib/inc\xmc_usic.h **** typedef enum XMC_USIC_CH_OPERATING_MODE
 186:C:/Workspaces/DAVE4/RGB_led/Libraries/XMCLib/inc\xmc_usic.h **** {
 187:C:/Workspaces/DAVE4/RGB_led/Libraries/XMCLib/inc\xmc_usic.h ****   XMC_USIC_CH_OPERATING_MODE_IDLE = 0x0UL, /**< USIC channel idle */
 188:C:/Workspaces/DAVE4/RGB_led/Libraries/XMCLib/inc\xmc_usic.h ****   XMC_USIC_CH_OPERATING_MODE_SPI  = 0x1UL << USIC_CH_CCR_MODE_Pos, /**< SPI mode */
 189:C:/Workspaces/DAVE4/RGB_led/Libraries/XMCLib/inc\xmc_usic.h ****   XMC_USIC_CH_OPERATING_MODE_UART = 0x2UL << USIC_CH_CCR_MODE_Pos, /**< UART mode */
 190:C:/Workspaces/DAVE4/RGB_led/Libraries/XMCLib/inc\xmc_usic.h ****   XMC_USIC_CH_OPERATING_MODE_I2S  = 0x3UL << USIC_CH_CCR_MODE_Pos, /**< I2S mode */
 191:C:/Workspaces/DAVE4/RGB_led/Libraries/XMCLib/inc\xmc_usic.h ****   XMC_USIC_CH_OPERATING_MODE_I2C  = 0x4UL << USIC_CH_CCR_MODE_Pos  /**< I2C mode */
 192:C:/Workspaces/DAVE4/RGB_led/Libraries/XMCLib/inc\xmc_usic.h **** } XMC_USIC_CH_OPERATING_MODE_t;
 193:C:/Workspaces/DAVE4/RGB_led/Libraries/XMCLib/inc\xmc_usic.h **** 
 194:C:/Workspaces/DAVE4/RGB_led/Libraries/XMCLib/inc\xmc_usic.h **** /**
 195:C:/Workspaces/DAVE4/RGB_led/Libraries/XMCLib/inc\xmc_usic.h ****  * USIC channel inputs
 196:C:/Workspaces/DAVE4/RGB_led/Libraries/XMCLib/inc\xmc_usic.h ****  */
 197:C:/Workspaces/DAVE4/RGB_led/Libraries/XMCLib/inc\xmc_usic.h **** typedef enum XMC_USIC_CH_INPUT
 198:C:/Workspaces/DAVE4/RGB_led/Libraries/XMCLib/inc\xmc_usic.h **** {
 199:C:/Workspaces/DAVE4/RGB_led/Libraries/XMCLib/inc\xmc_usic.h ****   XMC_USIC_CH_INPUT_DX0, /**< DX0 input */
 200:C:/Workspaces/DAVE4/RGB_led/Libraries/XMCLib/inc\xmc_usic.h ****   XMC_USIC_CH_INPUT_DX1, /**< DX1 input */
 201:C:/Workspaces/DAVE4/RGB_led/Libraries/XMCLib/inc\xmc_usic.h ****   XMC_USIC_CH_INPUT_DX2, /**< DX2 input */
 202:C:/Workspaces/DAVE4/RGB_led/Libraries/XMCLib/inc\xmc_usic.h ****   XMC_USIC_CH_INPUT_DX3, /**< DX3 input */
 203:C:/Workspaces/DAVE4/RGB_led/Libraries/XMCLib/inc\xmc_usic.h ****   XMC_USIC_CH_INPUT_DX4, /**< DX4 input */
 204:C:/Workspaces/DAVE4/RGB_led/Libraries/XMCLib/inc\xmc_usic.h ****   XMC_USIC_CH_INPUT_DX5  /**< DX5 input */
 205:C:/Workspaces/DAVE4/RGB_led/Libraries/XMCLib/inc\xmc_usic.h **** } XMC_USIC_CH_INPUT_t;
 206:C:/Workspaces/DAVE4/RGB_led/Libraries/XMCLib/inc\xmc_usic.h **** 
 207:C:/Workspaces/DAVE4/RGB_led/Libraries/XMCLib/inc\xmc_usic.h **** /**
 208:C:/Workspaces/DAVE4/RGB_led/Libraries/XMCLib/inc\xmc_usic.h ****  * USIC channel input source sampling frequency
 209:C:/Workspaces/DAVE4/RGB_led/Libraries/XMCLib/inc\xmc_usic.h ****  */
 210:C:/Workspaces/DAVE4/RGB_led/Libraries/XMCLib/inc\xmc_usic.h **** typedef enum XMC_USIC_CH_INPUT_SAMPLING_FREQ
 211:C:/Workspaces/DAVE4/RGB_led/Libraries/XMCLib/inc\xmc_usic.h **** {
 212:C:/Workspaces/DAVE4/RGB_led/Libraries/XMCLib/inc\xmc_usic.h ****   XMC_USIC_CH_INPUT_SAMPLING_FREQ_FPERIPH            = 0x0UL, /**< Use fperiph frequency for input 
 213:C:/Workspaces/DAVE4/RGB_led/Libraries/XMCLib/inc\xmc_usic.h ****   XMC_USIC_CH_INPUT_SAMPLING_FREQ_FRACTIONAL_DIVIDER = 0x1UL << USIC_CH_DXCR_SFSEL_Pos  /**< Use fF
 214:C:/Workspaces/DAVE4/RGB_led/Libraries/XMCLib/inc\xmc_usic.h **** } XMC_USIC_CH_INPUT_SAMPLING_FREQ_t;
 215:C:/Workspaces/DAVE4/RGB_led/Libraries/XMCLib/inc\xmc_usic.h **** 
 216:C:/Workspaces/DAVE4/RGB_led/Libraries/XMCLib/inc\xmc_usic.h **** /**
 217:C:/Workspaces/DAVE4/RGB_led/Libraries/XMCLib/inc\xmc_usic.h ****  * USIC channel input combination mode
 218:C:/Workspaces/DAVE4/RGB_led/Libraries/XMCLib/inc\xmc_usic.h ****  */
 219:C:/Workspaces/DAVE4/RGB_led/Libraries/XMCLib/inc\xmc_usic.h **** typedef enum XMC_USIC_CH_INPUT_COMBINATION_MODE
 220:C:/Workspaces/DAVE4/RGB_led/Libraries/XMCLib/inc\xmc_usic.h **** {
 221:C:/Workspaces/DAVE4/RGB_led/Libraries/XMCLib/inc\xmc_usic.h ****   XMC_USIC_CH_INPUT_COMBINATION_MODE_TRIGGER_DISABLED = 0x0UL, /**< The trigger activation is disab
 222:C:/Workspaces/DAVE4/RGB_led/Libraries/XMCLib/inc\xmc_usic.h ****   XMC_USIC_CH_INPUT_COMBINATION_MODE_RISING_EDGE      = 0x1UL, /**< A rising edge activates DXnT*/
 223:C:/Workspaces/DAVE4/RGB_led/Libraries/XMCLib/inc\xmc_usic.h ****   XMC_USIC_CH_INPUT_COMBINATION_MODE_FALLING_EDGE     = 0x2UL, /**< A falling edge activates DXnT*/
 224:C:/Workspaces/DAVE4/RGB_led/Libraries/XMCLib/inc\xmc_usic.h ****   XMC_USIC_CH_INPUT_COMBINATION_MODE_BOTH_EDGES       = 0x3UL, /**< Both edges activate DXnT*/
 225:C:/Workspaces/DAVE4/RGB_led/Libraries/XMCLib/inc\xmc_usic.h **** } XMC_USIC_CH_INPUT_COMBINATION_MODE_t;
 226:C:/Workspaces/DAVE4/RGB_led/Libraries/XMCLib/inc\xmc_usic.h **** 
 227:C:/Workspaces/DAVE4/RGB_led/Libraries/XMCLib/inc\xmc_usic.h **** /**
 228:C:/Workspaces/DAVE4/RGB_led/Libraries/XMCLib/inc\xmc_usic.h ****  * USIC channel data transmission start modes.
 229:C:/Workspaces/DAVE4/RGB_led/Libraries/XMCLib/inc\xmc_usic.h ****  * Data shifted out of the transmit pin depends on the value configured for the
 230:C:/Workspaces/DAVE4/RGB_led/Libraries/XMCLib/inc\xmc_usic.h ****  * TDEN bitfield of the TCSR register. Following enum values are used for configuring
 231:C:/Workspaces/DAVE4/RGB_led/Libraries/XMCLib/inc\xmc_usic.h ****  * the TCSR->TDEN bitfield.
 232:C:/Workspaces/DAVE4/RGB_led/Libraries/XMCLib/inc\xmc_usic.h ****  */
 233:C:/Workspaces/DAVE4/RGB_led/Libraries/XMCLib/inc\xmc_usic.h **** typedef enum XMC_USIC_CH_START_TRANSMISION_MODE
 234:C:/Workspaces/DAVE4/RGB_led/Libraries/XMCLib/inc\xmc_usic.h **** {
 235:C:/Workspaces/DAVE4/RGB_led/Libraries/XMCLib/inc\xmc_usic.h ****   XMC_USIC_CH_START_TRANSMISION_DISABLED      = 0x0U, /**< Passive data level is sent out on transm
 236:C:/Workspaces/DAVE4/RGB_led/Libraries/XMCLib/inc\xmc_usic.h ****   XMC_USIC_CH_START_TRANSMISION_ON_TDV        = 0x1UL << USIC_CH_TCSR_TDEN_Pos, /**< Transmission o
 237:C:/Workspaces/DAVE4/RGB_led/Libraries/XMCLib/inc\xmc_usic.h ****   XMC_USIC_CH_START_TRANSMISION_ON_TDV_DX2S_0 = 0x2UL << USIC_CH_TCSR_TDEN_Pos, /**< Transmission o
 238:C:/Workspaces/DAVE4/RGB_led/Libraries/XMCLib/inc\xmc_usic.h ****   XMC_USIC_CH_START_TRANSMISION_ON_TDV_DX2S_1 = 0x3UL << USIC_CH_TCSR_TDEN_Pos  /**< Transmission o
 239:C:/Workspaces/DAVE4/RGB_led/Libraries/XMCLib/inc\xmc_usic.h **** } XMC_USIC_CH_START_TRANSMISION_MODE_t;
 240:C:/Workspaces/DAVE4/RGB_led/Libraries/XMCLib/inc\xmc_usic.h **** 
 241:C:/Workspaces/DAVE4/RGB_led/Libraries/XMCLib/inc\xmc_usic.h **** /**
 242:C:/Workspaces/DAVE4/RGB_led/Libraries/XMCLib/inc\xmc_usic.h ****  * USIC channel interrupt node pointers
 243:C:/Workspaces/DAVE4/RGB_led/Libraries/XMCLib/inc\xmc_usic.h ****  */
 244:C:/Workspaces/DAVE4/RGB_led/Libraries/XMCLib/inc\xmc_usic.h **** typedef enum XMC_USIC_CH_INTERRUPT_NODE_POINTER
 245:C:/Workspaces/DAVE4/RGB_led/Libraries/XMCLib/inc\xmc_usic.h **** {
 246:C:/Workspaces/DAVE4/RGB_led/Libraries/XMCLib/inc\xmc_usic.h ****   XMC_USIC_CH_INTERRUPT_NODE_POINTER_TRANSMIT_SHIFT      = USIC_CH_INPR_TSINP_Pos, /**< Node pointe
 247:C:/Workspaces/DAVE4/RGB_led/Libraries/XMCLib/inc\xmc_usic.h ****   XMC_USIC_CH_INTERRUPT_NODE_POINTER_TRANSMIT_BUFFER     = USIC_CH_INPR_TBINP_Pos, /**< Node pointe
 248:C:/Workspaces/DAVE4/RGB_led/Libraries/XMCLib/inc\xmc_usic.h ****   XMC_USIC_CH_INTERRUPT_NODE_POINTER_RECEIVE             = USIC_CH_INPR_RINP_Pos,  /**< Node pointe
 249:C:/Workspaces/DAVE4/RGB_led/Libraries/XMCLib/inc\xmc_usic.h ****   XMC_USIC_CH_INTERRUPT_NODE_POINTER_ALTERNATE_RECEIVE   = USIC_CH_INPR_AINP_Pos,  /**< Node pointe
 250:C:/Workspaces/DAVE4/RGB_led/Libraries/XMCLib/inc\xmc_usic.h ****   XMC_USIC_CH_INTERRUPT_NODE_POINTER_PROTOCOL            = USIC_CH_INPR_PINP_Pos   /**< Node pointe
 251:C:/Workspaces/DAVE4/RGB_led/Libraries/XMCLib/inc\xmc_usic.h **** } XMC_USIC_CH_INTERRUPT_NODE_POINTER_t;
 252:C:/Workspaces/DAVE4/RGB_led/Libraries/XMCLib/inc\xmc_usic.h **** 
 253:C:/Workspaces/DAVE4/RGB_led/Libraries/XMCLib/inc\xmc_usic.h **** /**
 254:C:/Workspaces/DAVE4/RGB_led/Libraries/XMCLib/inc\xmc_usic.h ****  * USIC channel events
 255:C:/Workspaces/DAVE4/RGB_led/Libraries/XMCLib/inc\xmc_usic.h ****  */
 256:C:/Workspaces/DAVE4/RGB_led/Libraries/XMCLib/inc\xmc_usic.h **** typedef enum XMC_USIC_CH_EVENT
 257:C:/Workspaces/DAVE4/RGB_led/Libraries/XMCLib/inc\xmc_usic.h **** {
 258:C:/Workspaces/DAVE4/RGB_led/Libraries/XMCLib/inc\xmc_usic.h ****   XMC_USIC_CH_EVENT_RECEIVE_START       = USIC_CH_CCR_RSIEN_Msk, /**< Receive start event */
 259:C:/Workspaces/DAVE4/RGB_led/Libraries/XMCLib/inc\xmc_usic.h ****   XMC_USIC_CH_EVENT_DATA_LOST           = USIC_CH_CCR_DLIEN_Msk, /**< Data lost event */
 260:C:/Workspaces/DAVE4/RGB_led/Libraries/XMCLib/inc\xmc_usic.h ****   XMC_USIC_CH_EVENT_TRANSMIT_SHIFT      = USIC_CH_CCR_TSIEN_Msk, /**< Transmit shift event */
 261:C:/Workspaces/DAVE4/RGB_led/Libraries/XMCLib/inc\xmc_usic.h ****   XMC_USIC_CH_EVENT_TRANSMIT_BUFFER     = USIC_CH_CCR_TBIEN_Msk, /**< Transmit buffer event */
 262:C:/Workspaces/DAVE4/RGB_led/Libraries/XMCLib/inc\xmc_usic.h ****   XMC_USIC_CH_EVENT_STANDARD_RECEIVE    = USIC_CH_CCR_RIEN_Msk,  /**< Receive event */
 263:C:/Workspaces/DAVE4/RGB_led/Libraries/XMCLib/inc\xmc_usic.h ****   XMC_USIC_CH_EVENT_ALTERNATIVE_RECEIVE = USIC_CH_CCR_AIEN_Msk,  /**< Alternate receive event */
 264:C:/Workspaces/DAVE4/RGB_led/Libraries/XMCLib/inc\xmc_usic.h ****   XMC_USIC_CH_EVENT_BAUD_RATE_GENERATOR = USIC_CH_CCR_BRGIEN_Msk /**< Baudrate generator event */
 265:C:/Workspaces/DAVE4/RGB_led/Libraries/XMCLib/inc\xmc_usic.h **** } XMC_USIC_CH_EVENT_t;
 266:C:/Workspaces/DAVE4/RGB_led/Libraries/XMCLib/inc\xmc_usic.h **** 
 267:C:/Workspaces/DAVE4/RGB_led/Libraries/XMCLib/inc\xmc_usic.h **** /**
 268:C:/Workspaces/DAVE4/RGB_led/Libraries/XMCLib/inc\xmc_usic.h **** * USIC channel parity mode
 269:C:/Workspaces/DAVE4/RGB_led/Libraries/XMCLib/inc\xmc_usic.h **** */
 270:C:/Workspaces/DAVE4/RGB_led/Libraries/XMCLib/inc\xmc_usic.h **** typedef enum XMC_USIC_CH_PARITY_MODE
 271:C:/Workspaces/DAVE4/RGB_led/Libraries/XMCLib/inc\xmc_usic.h **** {
 272:C:/Workspaces/DAVE4/RGB_led/Libraries/XMCLib/inc\xmc_usic.h ****   XMC_USIC_CH_PARITY_MODE_NONE     = 0x0UL,  /**< Disable parity mode */
 273:C:/Workspaces/DAVE4/RGB_led/Libraries/XMCLib/inc\xmc_usic.h ****   XMC_USIC_CH_PARITY_MODE_EVEN     = 0x2UL << USIC_CH_CCR_PM_Pos,  /**< Enable even parity mode */
 274:C:/Workspaces/DAVE4/RGB_led/Libraries/XMCLib/inc\xmc_usic.h ****   XMC_USIC_CH_PARITY_MODE_ODD      = 0x3UL << USIC_CH_CCR_PM_Pos   /**< Enable odd parity mode */
 275:C:/Workspaces/DAVE4/RGB_led/Libraries/XMCLib/inc\xmc_usic.h **** } XMC_USIC_CH_PARITY_MODE_t;
 276:C:/Workspaces/DAVE4/RGB_led/Libraries/XMCLib/inc\xmc_usic.h **** 
 277:C:/Workspaces/DAVE4/RGB_led/Libraries/XMCLib/inc\xmc_usic.h **** /**
 278:C:/Workspaces/DAVE4/RGB_led/Libraries/XMCLib/inc\xmc_usic.h **** * USIC channel data output mode
 279:C:/Workspaces/DAVE4/RGB_led/Libraries/XMCLib/inc\xmc_usic.h **** */
 280:C:/Workspaces/DAVE4/RGB_led/Libraries/XMCLib/inc\xmc_usic.h **** typedef enum XMC_USIC_CH_DATA_OUTPUT_MODE
 281:C:/Workspaces/DAVE4/RGB_led/Libraries/XMCLib/inc\xmc_usic.h **** {
 282:C:/Workspaces/DAVE4/RGB_led/Libraries/XMCLib/inc\xmc_usic.h ****   XMC_USIC_CH_DATA_OUTPUT_MODE_NORMAL   = 0x0UL,  /**< Data output normal mode */
 283:C:/Workspaces/DAVE4/RGB_led/Libraries/XMCLib/inc\xmc_usic.h ****   XMC_USIC_CH_DATA_OUTPUT_MODE_INVERTED = 0x1UL << USIC_CH_SCTR_DOCFG_Pos   /**< Data output invert
 284:C:/Workspaces/DAVE4/RGB_led/Libraries/XMCLib/inc\xmc_usic.h **** } XMC_USIC_CH_DATA_OUTPUT_MODE_t;
 285:C:/Workspaces/DAVE4/RGB_led/Libraries/XMCLib/inc\xmc_usic.h **** 
 286:C:/Workspaces/DAVE4/RGB_led/Libraries/XMCLib/inc\xmc_usic.h **** /**
 287:C:/Workspaces/DAVE4/RGB_led/Libraries/XMCLib/inc\xmc_usic.h **** * USIC channel data transmit buffer status
 288:C:/Workspaces/DAVE4/RGB_led/Libraries/XMCLib/inc\xmc_usic.h **** */
 289:C:/Workspaces/DAVE4/RGB_led/Libraries/XMCLib/inc\xmc_usic.h **** typedef enum XMC_USIC_CH_TBUF_STATUS
 290:C:/Workspaces/DAVE4/RGB_led/Libraries/XMCLib/inc\xmc_usic.h **** {
 291:C:/Workspaces/DAVE4/RGB_led/Libraries/XMCLib/inc\xmc_usic.h ****   XMC_USIC_CH_TBUF_STATUS_IDLE = 0x0UL,                 /**< Transfer buffer is currently idle*/
 292:C:/Workspaces/DAVE4/RGB_led/Libraries/XMCLib/inc\xmc_usic.h ****   XMC_USIC_CH_TBUF_STATUS_BUSY = USIC_CH_TCSR_TDV_Msk   /**< Transfer buffer is currently busy*/
 293:C:/Workspaces/DAVE4/RGB_led/Libraries/XMCLib/inc\xmc_usic.h **** } XMC_USIC_CH_TBUF_STATUS_t;
 294:C:/Workspaces/DAVE4/RGB_led/Libraries/XMCLib/inc\xmc_usic.h **** 
 295:C:/Workspaces/DAVE4/RGB_led/Libraries/XMCLib/inc\xmc_usic.h **** 
 296:C:/Workspaces/DAVE4/RGB_led/Libraries/XMCLib/inc\xmc_usic.h **** 
 297:C:/Workspaces/DAVE4/RGB_led/Libraries/XMCLib/inc\xmc_usic.h **** /**
 298:C:/Workspaces/DAVE4/RGB_led/Libraries/XMCLib/inc\xmc_usic.h **** * USIC channel data transmit buffer status modification
 299:C:/Workspaces/DAVE4/RGB_led/Libraries/XMCLib/inc\xmc_usic.h **** */
 300:C:/Workspaces/DAVE4/RGB_led/Libraries/XMCLib/inc\xmc_usic.h **** typedef enum XMC_USIC_CH_TBUF_STATUS_SET
 301:C:/Workspaces/DAVE4/RGB_led/Libraries/XMCLib/inc\xmc_usic.h **** {
 302:C:/Workspaces/DAVE4/RGB_led/Libraries/XMCLib/inc\xmc_usic.h ****   XMC_USIC_CH_TBUF_STATUS_SET_BUSY   = 0x1UL, /**< Set Transfer buffer status to busy*/
 303:C:/Workspaces/DAVE4/RGB_led/Libraries/XMCLib/inc\xmc_usic.h ****   XMC_USIC_CH_TBUF_STATUS_SET_IDLE   = 0x2UL  /**< Set Transfer buffer status to idle*/
 304:C:/Workspaces/DAVE4/RGB_led/Libraries/XMCLib/inc\xmc_usic.h **** } XMC_USIC_CH_TBUF_STATUS_SET_t;
 305:C:/Workspaces/DAVE4/RGB_led/Libraries/XMCLib/inc\xmc_usic.h **** 
 306:C:/Workspaces/DAVE4/RGB_led/Libraries/XMCLib/inc\xmc_usic.h **** /**
 307:C:/Workspaces/DAVE4/RGB_led/Libraries/XMCLib/inc\xmc_usic.h **** * USIC channel receive buffer status
 308:C:/Workspaces/DAVE4/RGB_led/Libraries/XMCLib/inc\xmc_usic.h **** */
 309:C:/Workspaces/DAVE4/RGB_led/Libraries/XMCLib/inc\xmc_usic.h **** typedef enum XMC_USIC_CH_RBUF_STATUS
 310:C:/Workspaces/DAVE4/RGB_led/Libraries/XMCLib/inc\xmc_usic.h **** {
 311:C:/Workspaces/DAVE4/RGB_led/Libraries/XMCLib/inc\xmc_usic.h ****   XMC_USIC_CH_RBUF_STATUS_DATA_VALID0 = USIC_CH_RBUFSR_RDV0_Msk, /**< RBUF0 data has not yet been r
 312:C:/Workspaces/DAVE4/RGB_led/Libraries/XMCLib/inc\xmc_usic.h ****   XMC_USIC_CH_RBUF_STATUS_DATA_VALID1 = USIC_CH_RBUFSR_RDV1_Msk  /**< RBUF1 data has not yet been r
 313:C:/Workspaces/DAVE4/RGB_led/Libraries/XMCLib/inc\xmc_usic.h **** } XMC_USIC_CH_RBUF_STATUS_t;
 314:C:/Workspaces/DAVE4/RGB_led/Libraries/XMCLib/inc\xmc_usic.h **** 
 315:C:/Workspaces/DAVE4/RGB_led/Libraries/XMCLib/inc\xmc_usic.h **** /**
 316:C:/Workspaces/DAVE4/RGB_led/Libraries/XMCLib/inc\xmc_usic.h ****  * USIC channel output signal passive data level
 317:C:/Workspaces/DAVE4/RGB_led/Libraries/XMCLib/inc\xmc_usic.h **** */
 318:C:/Workspaces/DAVE4/RGB_led/Libraries/XMCLib/inc\xmc_usic.h **** typedef enum XMC_USCI_CH_PASSIVE_DATA_LEVEL
 319:C:/Workspaces/DAVE4/RGB_led/Libraries/XMCLib/inc\xmc_usic.h **** {
 320:C:/Workspaces/DAVE4/RGB_led/Libraries/XMCLib/inc\xmc_usic.h ****   XMC_USIC_CH_PASSIVE_DATA_LEVEL0 = 0x0UL, /**< Passive level(idle mode signal level) 0 */
 321:C:/Workspaces/DAVE4/RGB_led/Libraries/XMCLib/inc\xmc_usic.h ****   XMC_USIC_CH_PASSIVE_DATA_LEVEL1 = 0x1UL << USIC_CH_SCTR_PDL_Pos  /**< Passive level(idle mode sig
 322:C:/Workspaces/DAVE4/RGB_led/Libraries/XMCLib/inc\xmc_usic.h **** } XMC_USIC_CH_PASSIVE_DATA_LEVEL_t;
 323:C:/Workspaces/DAVE4/RGB_led/Libraries/XMCLib/inc\xmc_usic.h **** 
 324:C:/Workspaces/DAVE4/RGB_led/Libraries/XMCLib/inc\xmc_usic.h **** /**
 325:C:/Workspaces/DAVE4/RGB_led/Libraries/XMCLib/inc\xmc_usic.h **** * USIC channel receive FIFO size
 326:C:/Workspaces/DAVE4/RGB_led/Libraries/XMCLib/inc\xmc_usic.h **** */
 327:C:/Workspaces/DAVE4/RGB_led/Libraries/XMCLib/inc\xmc_usic.h **** typedef enum XMC_USIC_CH_FIFO_SIZE
 328:C:/Workspaces/DAVE4/RGB_led/Libraries/XMCLib/inc\xmc_usic.h **** {
 329:C:/Workspaces/DAVE4/RGB_led/Libraries/XMCLib/inc\xmc_usic.h ****   XMC_USIC_CH_FIFO_DISABLED     = 0x0U,  /**< FIFO Disabled */
 330:C:/Workspaces/DAVE4/RGB_led/Libraries/XMCLib/inc\xmc_usic.h ****   XMC_USIC_CH_FIFO_SIZE_2WORDS  = 0x1U,  /**< FIFO size: 2 words */
 331:C:/Workspaces/DAVE4/RGB_led/Libraries/XMCLib/inc\xmc_usic.h ****   XMC_USIC_CH_FIFO_SIZE_4WORDS  = 0x2U,  /**< FIFO size: 4 words */
 332:C:/Workspaces/DAVE4/RGB_led/Libraries/XMCLib/inc\xmc_usic.h ****   XMC_USIC_CH_FIFO_SIZE_8WORDS  = 0x3U,  /**< FIFO size: 8 words */
 333:C:/Workspaces/DAVE4/RGB_led/Libraries/XMCLib/inc\xmc_usic.h ****   XMC_USIC_CH_FIFO_SIZE_16WORDS = 0x4U,  /**< FIFO size: 16 words */
 334:C:/Workspaces/DAVE4/RGB_led/Libraries/XMCLib/inc\xmc_usic.h ****   XMC_USIC_CH_FIFO_SIZE_32WORDS = 0x5U,  /**< FIFO size: 32 words */
 335:C:/Workspaces/DAVE4/RGB_led/Libraries/XMCLib/inc\xmc_usic.h ****   XMC_USIC_CH_FIFO_SIZE_64WORDS = 0x6U   /**< FIFO size: 64 words */
 336:C:/Workspaces/DAVE4/RGB_led/Libraries/XMCLib/inc\xmc_usic.h **** } XMC_USIC_CH_FIFO_SIZE_t;
 337:C:/Workspaces/DAVE4/RGB_led/Libraries/XMCLib/inc\xmc_usic.h **** 
 338:C:/Workspaces/DAVE4/RGB_led/Libraries/XMCLib/inc\xmc_usic.h **** /**
 339:C:/Workspaces/DAVE4/RGB_led/Libraries/XMCLib/inc\xmc_usic.h **** * USIC channel transmit FIFO interrupt node pointers
 340:C:/Workspaces/DAVE4/RGB_led/Libraries/XMCLib/inc\xmc_usic.h **** */
 341:C:/Workspaces/DAVE4/RGB_led/Libraries/XMCLib/inc\xmc_usic.h **** typedef enum XMC_USIC_CH_TXFIFO_INTERRUPT_NODE_POINTER
 342:C:/Workspaces/DAVE4/RGB_led/Libraries/XMCLib/inc\xmc_usic.h **** {
 343:C:/Workspaces/DAVE4/RGB_led/Libraries/XMCLib/inc\xmc_usic.h ****   XMC_USIC_CH_TXFIFO_INTERRUPT_NODE_POINTER_STANDARD  = USIC_CH_TBCTR_STBINP_Pos,  /**< Node pointe
 344:C:/Workspaces/DAVE4/RGB_led/Libraries/XMCLib/inc\xmc_usic.h ****   XMC_USIC_CH_TXFIFO_INTERRUPT_NODE_POINTER_ALTERNATE = USIC_CH_TBCTR_ATBINP_Pos   /**< Node pointe
 345:C:/Workspaces/DAVE4/RGB_led/Libraries/XMCLib/inc\xmc_usic.h **** } XMC_USIC_CH_TXFIFO_INTERRUPT_NODE_POINTER_t;
 346:C:/Workspaces/DAVE4/RGB_led/Libraries/XMCLib/inc\xmc_usic.h **** 
 347:C:/Workspaces/DAVE4/RGB_led/Libraries/XMCLib/inc\xmc_usic.h **** /**
 348:C:/Workspaces/DAVE4/RGB_led/Libraries/XMCLib/inc\xmc_usic.h **** * USIC channel transmit FIFO event configuration
 349:C:/Workspaces/DAVE4/RGB_led/Libraries/XMCLib/inc\xmc_usic.h **** */
 350:C:/Workspaces/DAVE4/RGB_led/Libraries/XMCLib/inc\xmc_usic.h **** typedef enum XMC_USIC_CH_TXFIFO_EVENT_CONF
 351:C:/Workspaces/DAVE4/RGB_led/Libraries/XMCLib/inc\xmc_usic.h **** {
 352:C:/Workspaces/DAVE4/RGB_led/Libraries/XMCLib/inc\xmc_usic.h ****   XMC_USIC_CH_TXFIFO_EVENT_CONF_STANDARD  = USIC_CH_TBCTR_STBIEN_Msk,   /**< Enable FIFO standard t
 353:C:/Workspaces/DAVE4/RGB_led/Libraries/XMCLib/inc\xmc_usic.h ****   XMC_USIC_CH_TXFIFO_EVENT_CONF_ERROR     = (int32_t)USIC_CH_TBCTR_TBERIEN_Msk  /**< Enable transmi
 354:C:/Workspaces/DAVE4/RGB_led/Libraries/XMCLib/inc\xmc_usic.h **** } XMC_USIC_CH_TXFIFO_EVENT_CONF_t;
 355:C:/Workspaces/DAVE4/RGB_led/Libraries/XMCLib/inc\xmc_usic.h **** 
 356:C:/Workspaces/DAVE4/RGB_led/Libraries/XMCLib/inc\xmc_usic.h **** /**
 357:C:/Workspaces/DAVE4/RGB_led/Libraries/XMCLib/inc\xmc_usic.h **** * USIC channel transmit FIFO status
 358:C:/Workspaces/DAVE4/RGB_led/Libraries/XMCLib/inc\xmc_usic.h **** */
 359:C:/Workspaces/DAVE4/RGB_led/Libraries/XMCLib/inc\xmc_usic.h **** typedef enum XMC_USIC_CH_TXFIFO_EVENT
 360:C:/Workspaces/DAVE4/RGB_led/Libraries/XMCLib/inc\xmc_usic.h **** {
 361:C:/Workspaces/DAVE4/RGB_led/Libraries/XMCLib/inc\xmc_usic.h ****   XMC_USIC_CH_TXFIFO_EVENT_STANDARD = USIC_CH_TRBSR_STBI_Msk,    /**< Transmit FIFO status: Standar
 362:C:/Workspaces/DAVE4/RGB_led/Libraries/XMCLib/inc\xmc_usic.h ****   XMC_USIC_CH_TXFIFO_EVENT_ERROR    = USIC_CH_TRBSR_TBERI_Msk    /**< Transmit FIFO status: Error e
 363:C:/Workspaces/DAVE4/RGB_led/Libraries/XMCLib/inc\xmc_usic.h **** } XMC_USIC_CH_TXFIFO_EVENT_t;
 364:C:/Workspaces/DAVE4/RGB_led/Libraries/XMCLib/inc\xmc_usic.h **** 
 365:C:/Workspaces/DAVE4/RGB_led/Libraries/XMCLib/inc\xmc_usic.h **** /**
 366:C:/Workspaces/DAVE4/RGB_led/Libraries/XMCLib/inc\xmc_usic.h **** * USIC channel receive FIFO interrupt node pointers
 367:C:/Workspaces/DAVE4/RGB_led/Libraries/XMCLib/inc\xmc_usic.h **** */
 368:C:/Workspaces/DAVE4/RGB_led/Libraries/XMCLib/inc\xmc_usic.h **** typedef enum XMC_USIC_CH_RXFIFO_INTERRUPT_NODE_POINTER
 369:C:/Workspaces/DAVE4/RGB_led/Libraries/XMCLib/inc\xmc_usic.h **** {
 370:C:/Workspaces/DAVE4/RGB_led/Libraries/XMCLib/inc\xmc_usic.h ****   XMC_USIC_CH_RXFIFO_INTERRUPT_NODE_POINTER_STANDARD  = USIC_CH_RBCTR_SRBINP_Pos, /**< Node pointer
 371:C:/Workspaces/DAVE4/RGB_led/Libraries/XMCLib/inc\xmc_usic.h ****   XMC_USIC_CH_RXFIFO_INTERRUPT_NODE_POINTER_ALTERNATE = USIC_CH_RBCTR_ARBINP_Pos  /**< Node pointer
 372:C:/Workspaces/DAVE4/RGB_led/Libraries/XMCLib/inc\xmc_usic.h **** } XMC_USIC_CH_RXFIFO_INTERRUPT_NODE_POINTER_t;
 373:C:/Workspaces/DAVE4/RGB_led/Libraries/XMCLib/inc\xmc_usic.h **** 
 374:C:/Workspaces/DAVE4/RGB_led/Libraries/XMCLib/inc\xmc_usic.h **** /**
 375:C:/Workspaces/DAVE4/RGB_led/Libraries/XMCLib/inc\xmc_usic.h **** * USIC channel receive FIFO event configuration
 376:C:/Workspaces/DAVE4/RGB_led/Libraries/XMCLib/inc\xmc_usic.h **** */
 377:C:/Workspaces/DAVE4/RGB_led/Libraries/XMCLib/inc\xmc_usic.h **** typedef enum XMC_USIC_CH_RXFIFO_EVENT_CONF
 378:C:/Workspaces/DAVE4/RGB_led/Libraries/XMCLib/inc\xmc_usic.h **** {
 379:C:/Workspaces/DAVE4/RGB_led/Libraries/XMCLib/inc\xmc_usic.h ****   XMC_USIC_CH_RXFIFO_EVENT_CONF_STANDARD  = USIC_CH_RBCTR_SRBIEN_Msk,   /**< Enable FIFO standard r
 380:C:/Workspaces/DAVE4/RGB_led/Libraries/XMCLib/inc\xmc_usic.h ****   XMC_USIC_CH_RXFIFO_EVENT_CONF_ERROR     = (int32_t)USIC_CH_RBCTR_RBERIEN_Msk,  /**< Enable receiv
 381:C:/Workspaces/DAVE4/RGB_led/Libraries/XMCLib/inc\xmc_usic.h ****   XMC_USIC_CH_RXFIFO_EVENT_CONF_ALTERNATE = USIC_CH_RBCTR_ARBIEN_Msk   /**< Enable FIFO alternative
 382:C:/Workspaces/DAVE4/RGB_led/Libraries/XMCLib/inc\xmc_usic.h **** } XMC_USIC_CH_RXFIFO_EVENT_CONF_t;
 383:C:/Workspaces/DAVE4/RGB_led/Libraries/XMCLib/inc\xmc_usic.h **** 
 384:C:/Workspaces/DAVE4/RGB_led/Libraries/XMCLib/inc\xmc_usic.h **** /**
 385:C:/Workspaces/DAVE4/RGB_led/Libraries/XMCLib/inc\xmc_usic.h **** * USIC channel receive FIFO status
 386:C:/Workspaces/DAVE4/RGB_led/Libraries/XMCLib/inc\xmc_usic.h **** */
 387:C:/Workspaces/DAVE4/RGB_led/Libraries/XMCLib/inc\xmc_usic.h **** typedef enum XMC_USIC_CH_RXFIFO_EVENT
 388:C:/Workspaces/DAVE4/RGB_led/Libraries/XMCLib/inc\xmc_usic.h **** {
 389:C:/Workspaces/DAVE4/RGB_led/Libraries/XMCLib/inc\xmc_usic.h ****   XMC_USIC_CH_RXFIFO_EVENT_STANDARD  = USIC_CH_TRBSR_SRBI_Msk,   /**< Receive FIFO status: Standard
 390:C:/Workspaces/DAVE4/RGB_led/Libraries/XMCLib/inc\xmc_usic.h ****   XMC_USIC_CH_RXFIFO_EVENT_ERROR     = USIC_CH_TRBSR_RBERI_Msk,  /**< Receive FIFO status: Error ev
 391:C:/Workspaces/DAVE4/RGB_led/Libraries/XMCLib/inc\xmc_usic.h ****   XMC_USIC_CH_RXFIFO_EVENT_ALTERNATE = USIC_CH_TRBSR_ARBI_Msk    /**< Receive FIFO status: Alternat
 392:C:/Workspaces/DAVE4/RGB_led/Libraries/XMCLib/inc\xmc_usic.h **** } XMC_USIC_CH_RXFIFO_EVENT_t;
 393:C:/Workspaces/DAVE4/RGB_led/Libraries/XMCLib/inc\xmc_usic.h **** 
 394:C:/Workspaces/DAVE4/RGB_led/Libraries/XMCLib/inc\xmc_usic.h **** /**
 395:C:/Workspaces/DAVE4/RGB_led/Libraries/XMCLib/inc\xmc_usic.h **** * USIC channel baudrate generator clock source
 396:C:/Workspaces/DAVE4/RGB_led/Libraries/XMCLib/inc\xmc_usic.h **** */
 397:C:/Workspaces/DAVE4/RGB_led/Libraries/XMCLib/inc\xmc_usic.h **** typedef enum XMC_USIC_CH_BRG_CLOCK_SOURCE
 398:C:/Workspaces/DAVE4/RGB_led/Libraries/XMCLib/inc\xmc_usic.h **** {
 399:C:/Workspaces/DAVE4/RGB_led/Libraries/XMCLib/inc\xmc_usic.h ****   XMC_USIC_CH_BRG_CLOCK_SOURCE_DIVIDER = 0x0UL, /**< Baudrate generator clock source : Source divid
 400:C:/Workspaces/DAVE4/RGB_led/Libraries/XMCLib/inc\xmc_usic.h ****   XMC_USIC_CH_BRG_CLOCK_SOURCE_DX1T    = 0x2UL << USIC_CH_BRG_CLKSEL_Pos  /**< Baudrate generator c
 401:C:/Workspaces/DAVE4/RGB_led/Libraries/XMCLib/inc\xmc_usic.h **** } XMC_USIC_CH_BRG_CLOCK_SOURCE_t;
 402:C:/Workspaces/DAVE4/RGB_led/Libraries/XMCLib/inc\xmc_usic.h **** 
 403:C:/Workspaces/DAVE4/RGB_led/Libraries/XMCLib/inc\xmc_usic.h **** /**
 404:C:/Workspaces/DAVE4/RGB_led/Libraries/XMCLib/inc\xmc_usic.h **** * USIC channel baudrate generator divider mode
 405:C:/Workspaces/DAVE4/RGB_led/Libraries/XMCLib/inc\xmc_usic.h **** */
 406:C:/Workspaces/DAVE4/RGB_led/Libraries/XMCLib/inc\xmc_usic.h **** typedef enum XMC_USIC_CH_BRG_CLOCK_DIVIDER_MODE
 407:C:/Workspaces/DAVE4/RGB_led/Libraries/XMCLib/inc\xmc_usic.h **** {
 408:C:/Workspaces/DAVE4/RGB_led/Libraries/XMCLib/inc\xmc_usic.h ****   XMC_USIC_CH_BRG_CLOCK_DIVIDER_MODE_DISABLED   = 0x0UL, /**< Baudrate generator clock divider: Dis
 409:C:/Workspaces/DAVE4/RGB_led/Libraries/XMCLib/inc\xmc_usic.h ****   XMC_USIC_CH_BRG_CLOCK_DIVIDER_MODE_NORMAL     = 0x1UL << USIC_CH_FDR_DM_Pos, /**< Baudrate genera
 410:C:/Workspaces/DAVE4/RGB_led/Libraries/XMCLib/inc\xmc_usic.h ****   XMC_USIC_CH_BRG_CLOCK_DIVIDER_MODE_FRACTIONAL = 0x2UL << USIC_CH_FDR_DM_Pos  /**< Baudrate genera
 411:C:/Workspaces/DAVE4/RGB_led/Libraries/XMCLib/inc\xmc_usic.h **** } XMC_USIC_CH_BRG_CLOCK_DIVIDER_MODE_t;
 412:C:/Workspaces/DAVE4/RGB_led/Libraries/XMCLib/inc\xmc_usic.h **** 
 413:C:/Workspaces/DAVE4/RGB_led/Libraries/XMCLib/inc\xmc_usic.h **** /**
 414:C:/Workspaces/DAVE4/RGB_led/Libraries/XMCLib/inc\xmc_usic.h **** * USIC channel baudrate generator master clock passive level
 415:C:/Workspaces/DAVE4/RGB_led/Libraries/XMCLib/inc\xmc_usic.h **** */
 416:C:/Workspaces/DAVE4/RGB_led/Libraries/XMCLib/inc\xmc_usic.h **** typedef enum XMC_USIC_CH_BRG_MASTER_CLOCK_PASSIVE_LEVEL
 417:C:/Workspaces/DAVE4/RGB_led/Libraries/XMCLib/inc\xmc_usic.h **** {
 418:C:/Workspaces/DAVE4/RGB_led/Libraries/XMCLib/inc\xmc_usic.h ****   XMC_USIC_CH_BRG_MASTER_CLOCK_PASSIVE_LEVEL_0 = 0x0UL, /**< Baudrate generator master clock passiv
 419:C:/Workspaces/DAVE4/RGB_led/Libraries/XMCLib/inc\xmc_usic.h ****   XMC_USIC_CH_BRG_MASTER_CLOCK_PASSIVE_LEVEL_1 = 0x1UL << USIC_CH_BRG_MCLKCFG_Pos  /**< Baudrate ge
 420:C:/Workspaces/DAVE4/RGB_led/Libraries/XMCLib/inc\xmc_usic.h **** } XMC_USIC_CH_BRG_MASTER_CLOCK_PASSIVE_LEVEL_t;
 421:C:/Workspaces/DAVE4/RGB_led/Libraries/XMCLib/inc\xmc_usic.h **** 
 422:C:/Workspaces/DAVE4/RGB_led/Libraries/XMCLib/inc\xmc_usic.h **** /**
 423:C:/Workspaces/DAVE4/RGB_led/Libraries/XMCLib/inc\xmc_usic.h **** * USIC channel baudrate generator shift clock passive level
 424:C:/Workspaces/DAVE4/RGB_led/Libraries/XMCLib/inc\xmc_usic.h **** */
 425:C:/Workspaces/DAVE4/RGB_led/Libraries/XMCLib/inc\xmc_usic.h **** typedef enum XMC_USIC_CH_BRG_SHIFT_CLOCK_PASSIVE_LEVEL
 426:C:/Workspaces/DAVE4/RGB_led/Libraries/XMCLib/inc\xmc_usic.h **** {
 427:C:/Workspaces/DAVE4/RGB_led/Libraries/XMCLib/inc\xmc_usic.h ****   XMC_USIC_CH_BRG_SHIFT_CLOCK_PASSIVE_LEVEL_0_DELAY_DISABLED = 0x0UL, /**< Shift clock passive leve
 428:C:/Workspaces/DAVE4/RGB_led/Libraries/XMCLib/inc\xmc_usic.h ****   XMC_USIC_CH_BRG_SHIFT_CLOCK_PASSIVE_LEVEL_1_DELAY_DISABLED = 0x1UL << USIC_CH_BRG_SCLKCFG_Pos, /*
 429:C:/Workspaces/DAVE4/RGB_led/Libraries/XMCLib/inc\xmc_usic.h ****   XMC_USIC_CH_BRG_SHIFT_CLOCK_PASSIVE_LEVEL_0_DELAY_ENABLED  = (int32_t)(0x2UL << USIC_CH_BRG_SCLKC
 430:C:/Workspaces/DAVE4/RGB_led/Libraries/XMCLib/inc\xmc_usic.h ****   XMC_USIC_CH_BRG_SHIFT_CLOCK_PASSIVE_LEVEL_1_DELAY_ENABLED  = (int32_t)(0x3UL << USIC_CH_BRG_SCLKC
 431:C:/Workspaces/DAVE4/RGB_led/Libraries/XMCLib/inc\xmc_usic.h **** } XMC_USIC_CH_BRG_SHIFT_CLOCK_PASSIVE_LEVEL_t;
 432:C:/Workspaces/DAVE4/RGB_led/Libraries/XMCLib/inc\xmc_usic.h **** 
 433:C:/Workspaces/DAVE4/RGB_led/Libraries/XMCLib/inc\xmc_usic.h **** /**
 434:C:/Workspaces/DAVE4/RGB_led/Libraries/XMCLib/inc\xmc_usic.h **** * USIC channel baudrate generator shift clock output
 435:C:/Workspaces/DAVE4/RGB_led/Libraries/XMCLib/inc\xmc_usic.h **** */
 436:C:/Workspaces/DAVE4/RGB_led/Libraries/XMCLib/inc\xmc_usic.h **** typedef enum XMC_USIC_CH_BRG_SHIFT_CLOCK_OUTPUT
 437:C:/Workspaces/DAVE4/RGB_led/Libraries/XMCLib/inc\xmc_usic.h **** {
 438:C:/Workspaces/DAVE4/RGB_led/Libraries/XMCLib/inc\xmc_usic.h ****   XMC_USIC_CH_BRG_SHIFT_CLOCK_OUTPUT_SCLK = 0x0UL, /**< Baudrate generator shift clock output: SCL.
 439:C:/Workspaces/DAVE4/RGB_led/Libraries/XMCLib/inc\xmc_usic.h ****   XMC_USIC_CH_BRG_SHIFT_CLOCK_OUTPUT_DX1 = 0x1UL << USIC_CH_BRG_SCLKOSEL_Pos   /**< Baudrate genera
 440:C:/Workspaces/DAVE4/RGB_led/Libraries/XMCLib/inc\xmc_usic.h **** } XMC_USIC_CH_BRG_SHIFT_CLOCK_OUTPUT_t;
 441:C:/Workspaces/DAVE4/RGB_led/Libraries/XMCLib/inc\xmc_usic.h **** 
 442:C:/Workspaces/DAVE4/RGB_led/Libraries/XMCLib/inc\xmc_usic.h **** /*******************************************************************************
 443:C:/Workspaces/DAVE4/RGB_led/Libraries/XMCLib/inc\xmc_usic.h ****  * DATA STRUCTURES
 444:C:/Workspaces/DAVE4/RGB_led/Libraries/XMCLib/inc\xmc_usic.h ****  *******************************************************************************/
 445:C:/Workspaces/DAVE4/RGB_led/Libraries/XMCLib/inc\xmc_usic.h **** 
 446:C:/Workspaces/DAVE4/RGB_led/Libraries/XMCLib/inc\xmc_usic.h **** /*Anonymous structure/union guard start*/
 447:C:/Workspaces/DAVE4/RGB_led/Libraries/XMCLib/inc\xmc_usic.h **** #if defined(__CC_ARM)
 448:C:/Workspaces/DAVE4/RGB_led/Libraries/XMCLib/inc\xmc_usic.h ****   #pragma push
 449:C:/Workspaces/DAVE4/RGB_led/Libraries/XMCLib/inc\xmc_usic.h ****   #pragma anon_unions
 450:C:/Workspaces/DAVE4/RGB_led/Libraries/XMCLib/inc\xmc_usic.h **** #elif defined(__TASKING__)
 451:C:/Workspaces/DAVE4/RGB_led/Libraries/XMCLib/inc\xmc_usic.h ****   #pragma warning 586
 452:C:/Workspaces/DAVE4/RGB_led/Libraries/XMCLib/inc\xmc_usic.h **** #endif
 453:C:/Workspaces/DAVE4/RGB_led/Libraries/XMCLib/inc\xmc_usic.h **** 
 454:C:/Workspaces/DAVE4/RGB_led/Libraries/XMCLib/inc\xmc_usic.h **** /**
 455:C:/Workspaces/DAVE4/RGB_led/Libraries/XMCLib/inc\xmc_usic.h ****  * USIC module structure
 456:C:/Workspaces/DAVE4/RGB_led/Libraries/XMCLib/inc\xmc_usic.h ****  */
 457:C:/Workspaces/DAVE4/RGB_led/Libraries/XMCLib/inc\xmc_usic.h **** typedef USIC_GLOBAL_TypeDef XMC_USIC_t;
 458:C:/Workspaces/DAVE4/RGB_led/Libraries/XMCLib/inc\xmc_usic.h **** 
 459:C:/Workspaces/DAVE4/RGB_led/Libraries/XMCLib/inc\xmc_usic.h **** /**
 460:C:/Workspaces/DAVE4/RGB_led/Libraries/XMCLib/inc\xmc_usic.h ****  * USIC channel structure.<br> The members of the structure are same as in the device header file, 
 461:C:/Workspaces/DAVE4/RGB_led/Libraries/XMCLib/inc\xmc_usic.h ****  * except for some registers.
 462:C:/Workspaces/DAVE4/RGB_led/Libraries/XMCLib/inc\xmc_usic.h ****  * DX0CR, DX1CR, DX2CR, DX3CR, DX4CR and DX5CR are replaced with the array DXCR[6].
 463:C:/Workspaces/DAVE4/RGB_led/Libraries/XMCLib/inc\xmc_usic.h ****  * TBUF0 to TBUF31 are replaced with TBUF[32].
 464:C:/Workspaces/DAVE4/RGB_led/Libraries/XMCLib/inc\xmc_usic.h ****  * IN0 to IN31 are replaced with IN[32].
 465:C:/Workspaces/DAVE4/RGB_led/Libraries/XMCLib/inc\xmc_usic.h ****  */
 466:C:/Workspaces/DAVE4/RGB_led/Libraries/XMCLib/inc\xmc_usic.h **** typedef struct XMC_USIC_CH
 467:C:/Workspaces/DAVE4/RGB_led/Libraries/XMCLib/inc\xmc_usic.h **** {
 468:C:/Workspaces/DAVE4/RGB_led/Libraries/XMCLib/inc\xmc_usic.h ****   __I  uint32_t  RESERVED0;
 469:C:/Workspaces/DAVE4/RGB_led/Libraries/XMCLib/inc\xmc_usic.h ****   __I  uint32_t  CCFG;			/**< Channel configuration register*/
 470:C:/Workspaces/DAVE4/RGB_led/Libraries/XMCLib/inc\xmc_usic.h ****   __I  uint32_t  RESERVED1;
 471:C:/Workspaces/DAVE4/RGB_led/Libraries/XMCLib/inc\xmc_usic.h ****   __IO uint32_t  KSCFG;			/**< Kernel state configuration register*/
 472:C:/Workspaces/DAVE4/RGB_led/Libraries/XMCLib/inc\xmc_usic.h ****   __IO uint32_t  FDR;			/**< Fractional divider configuration register*/
 473:C:/Workspaces/DAVE4/RGB_led/Libraries/XMCLib/inc\xmc_usic.h ****   __IO uint32_t  BRG;			/**< Baud rate generator register*/
 474:C:/Workspaces/DAVE4/RGB_led/Libraries/XMCLib/inc\xmc_usic.h ****   __IO uint32_t  INPR;			/**< Interrupt node pointer register*/
 475:C:/Workspaces/DAVE4/RGB_led/Libraries/XMCLib/inc\xmc_usic.h ****   __IO uint32_t  DXCR[6];		/**< Input control registers DX0 to DX5.*/
 476:C:/Workspaces/DAVE4/RGB_led/Libraries/XMCLib/inc\xmc_usic.h ****   __IO uint32_t  SCTR;			/**< Shift control register*/
 477:C:/Workspaces/DAVE4/RGB_led/Libraries/XMCLib/inc\xmc_usic.h ****   __IO uint32_t  TCSR;
 478:C:/Workspaces/DAVE4/RGB_led/Libraries/XMCLib/inc\xmc_usic.h **** 
 479:C:/Workspaces/DAVE4/RGB_led/Libraries/XMCLib/inc\xmc_usic.h ****   union {
 480:C:/Workspaces/DAVE4/RGB_led/Libraries/XMCLib/inc\xmc_usic.h ****     __IO uint32_t  PCR_IICMode;	/**< I2C protocol configuration register*/
 481:C:/Workspaces/DAVE4/RGB_led/Libraries/XMCLib/inc\xmc_usic.h ****     __IO uint32_t  PCR_IISMode; /**< I2S protocol configuration register*/
 482:C:/Workspaces/DAVE4/RGB_led/Libraries/XMCLib/inc\xmc_usic.h ****     __IO uint32_t  PCR_SSCMode;	/**< SPI protocol configuration register*/
 483:C:/Workspaces/DAVE4/RGB_led/Libraries/XMCLib/inc\xmc_usic.h ****     __IO uint32_t  PCR;			/**< Protocol configuration register*/
 484:C:/Workspaces/DAVE4/RGB_led/Libraries/XMCLib/inc\xmc_usic.h ****     __IO uint32_t  PCR_ASCMode;	/**< UART protocol configuration register*/
 485:C:/Workspaces/DAVE4/RGB_led/Libraries/XMCLib/inc\xmc_usic.h ****   };
 486:C:/Workspaces/DAVE4/RGB_led/Libraries/XMCLib/inc\xmc_usic.h ****   __IO uint32_t  CCR;			/**< Channel control register*/
 487:C:/Workspaces/DAVE4/RGB_led/Libraries/XMCLib/inc\xmc_usic.h ****   __IO uint32_t  CMTR;			/**< Capture mode timer register*/
 488:C:/Workspaces/DAVE4/RGB_led/Libraries/XMCLib/inc\xmc_usic.h **** 
 489:C:/Workspaces/DAVE4/RGB_led/Libraries/XMCLib/inc\xmc_usic.h ****   union {
 490:C:/Workspaces/DAVE4/RGB_led/Libraries/XMCLib/inc\xmc_usic.h ****     __IO uint32_t  PSR_IICMode;	/**< I2C protocol status register*/
 491:C:/Workspaces/DAVE4/RGB_led/Libraries/XMCLib/inc\xmc_usic.h ****     __IO uint32_t  PSR_IISMode;	/**< I2S protocol status register*/
 492:C:/Workspaces/DAVE4/RGB_led/Libraries/XMCLib/inc\xmc_usic.h ****     __IO uint32_t  PSR_SSCMode;	/**< SPI protocol status register*/
 493:C:/Workspaces/DAVE4/RGB_led/Libraries/XMCLib/inc\xmc_usic.h ****     __IO uint32_t  PSR;			/**< Protocol status register*/
 494:C:/Workspaces/DAVE4/RGB_led/Libraries/XMCLib/inc\xmc_usic.h ****     __IO uint32_t  PSR_ASCMode;	/**< UART protocol status register*/
 495:C:/Workspaces/DAVE4/RGB_led/Libraries/XMCLib/inc\xmc_usic.h ****   };
 496:C:/Workspaces/DAVE4/RGB_led/Libraries/XMCLib/inc\xmc_usic.h ****   __O  uint32_t  PSCR;			/**< Protocol status clear register*/
 497:C:/Workspaces/DAVE4/RGB_led/Libraries/XMCLib/inc\xmc_usic.h ****   __I  uint32_t  RBUFSR;		/**< Receive buffer status register*/
 498:C:/Workspaces/DAVE4/RGB_led/Libraries/XMCLib/inc\xmc_usic.h ****   __I  uint32_t  RBUF;			/**< Receive buffer register*/
 499:C:/Workspaces/DAVE4/RGB_led/Libraries/XMCLib/inc\xmc_usic.h ****   __I  uint32_t  RBUFD;			/**< Debug mode receive buffer register*/
 500:C:/Workspaces/DAVE4/RGB_led/Libraries/XMCLib/inc\xmc_usic.h ****   __I  uint32_t  RBUF0;			/**< Receive buffer 0*/
 501:C:/Workspaces/DAVE4/RGB_led/Libraries/XMCLib/inc\xmc_usic.h ****   __I  uint32_t  RBUF1;			/**< Receive buffer 1*/
 502:C:/Workspaces/DAVE4/RGB_led/Libraries/XMCLib/inc\xmc_usic.h ****   __I  uint32_t  RBUF01SR;		/**< Receive buffer status register*/
 503:C:/Workspaces/DAVE4/RGB_led/Libraries/XMCLib/inc\xmc_usic.h ****   __O  uint32_t  FMR;			/**< Flag modification register*/
 504:C:/Workspaces/DAVE4/RGB_led/Libraries/XMCLib/inc\xmc_usic.h ****   __I  uint32_t  RESERVED2[5];
 505:C:/Workspaces/DAVE4/RGB_led/Libraries/XMCLib/inc\xmc_usic.h ****   __IO uint32_t  TBUF[32];		/**< Tranmsit buffer registers*/
 506:C:/Workspaces/DAVE4/RGB_led/Libraries/XMCLib/inc\xmc_usic.h ****   __IO uint32_t  BYP;			/**< FIFO bypass register*/
 507:C:/Workspaces/DAVE4/RGB_led/Libraries/XMCLib/inc\xmc_usic.h ****   __IO uint32_t  BYPCR;			/**< FIFO bypass control register*/
 508:C:/Workspaces/DAVE4/RGB_led/Libraries/XMCLib/inc\xmc_usic.h ****   __IO uint32_t  TBCTR;			/**< Transmit FIFO control register*/
 509:C:/Workspaces/DAVE4/RGB_led/Libraries/XMCLib/inc\xmc_usic.h ****   __IO uint32_t  RBCTR;			/**< Receive FIFO control register*/
 510:C:/Workspaces/DAVE4/RGB_led/Libraries/XMCLib/inc\xmc_usic.h ****   __I  uint32_t  TRBPTR;		/**< Transmit/recive buffer pointer register*/
 511:C:/Workspaces/DAVE4/RGB_led/Libraries/XMCLib/inc\xmc_usic.h ****   __IO uint32_t  TRBSR;			/**< Transmit/receive buffer status register*/
 512:C:/Workspaces/DAVE4/RGB_led/Libraries/XMCLib/inc\xmc_usic.h ****   __O  uint32_t  TRBSCR;		/**< Transmit/receive buffer status clear register*/
 513:C:/Workspaces/DAVE4/RGB_led/Libraries/XMCLib/inc\xmc_usic.h ****   __I  uint32_t  OUTR;			/**< Receive FIFO output register*/
 514:C:/Workspaces/DAVE4/RGB_led/Libraries/XMCLib/inc\xmc_usic.h ****   __I  uint32_t  OUTDR;			/**< Receive FIFO debug output register*/
 515:C:/Workspaces/DAVE4/RGB_led/Libraries/XMCLib/inc\xmc_usic.h ****   __I  uint32_t  RESERVED3[23];
 516:C:/Workspaces/DAVE4/RGB_led/Libraries/XMCLib/inc\xmc_usic.h ****   __O  uint32_t  IN[32];		/**< Transmit FIFO input register*/
 517:C:/Workspaces/DAVE4/RGB_led/Libraries/XMCLib/inc\xmc_usic.h **** } XMC_USIC_CH_t;
 518:C:/Workspaces/DAVE4/RGB_led/Libraries/XMCLib/inc\xmc_usic.h **** 
 519:C:/Workspaces/DAVE4/RGB_led/Libraries/XMCLib/inc\xmc_usic.h **** 
 520:C:/Workspaces/DAVE4/RGB_led/Libraries/XMCLib/inc\xmc_usic.h **** /*Anonymous structure/union guard end*/
 521:C:/Workspaces/DAVE4/RGB_led/Libraries/XMCLib/inc\xmc_usic.h **** #if defined(__CC_ARM)
 522:C:/Workspaces/DAVE4/RGB_led/Libraries/XMCLib/inc\xmc_usic.h ****   #pragma pop
 523:C:/Workspaces/DAVE4/RGB_led/Libraries/XMCLib/inc\xmc_usic.h **** #elif defined(__TASKING__)
 524:C:/Workspaces/DAVE4/RGB_led/Libraries/XMCLib/inc\xmc_usic.h ****   #pragma warning restore
 525:C:/Workspaces/DAVE4/RGB_led/Libraries/XMCLib/inc\xmc_usic.h **** #endif
 526:C:/Workspaces/DAVE4/RGB_led/Libraries/XMCLib/inc\xmc_usic.h **** 
 527:C:/Workspaces/DAVE4/RGB_led/Libraries/XMCLib/inc\xmc_usic.h **** /*******************************************************************************
 528:C:/Workspaces/DAVE4/RGB_led/Libraries/XMCLib/inc\xmc_usic.h ****  * API PROTOTYPES
 529:C:/Workspaces/DAVE4/RGB_led/Libraries/XMCLib/inc\xmc_usic.h ****  ******************************************************************************/
 530:C:/Workspaces/DAVE4/RGB_led/Libraries/XMCLib/inc\xmc_usic.h **** 
 531:C:/Workspaces/DAVE4/RGB_led/Libraries/XMCLib/inc\xmc_usic.h **** #ifdef __cplusplus
 532:C:/Workspaces/DAVE4/RGB_led/Libraries/XMCLib/inc\xmc_usic.h **** extern "C" {
 533:C:/Workspaces/DAVE4/RGB_led/Libraries/XMCLib/inc\xmc_usic.h **** #endif
 534:C:/Workspaces/DAVE4/RGB_led/Libraries/XMCLib/inc\xmc_usic.h **** 
 535:C:/Workspaces/DAVE4/RGB_led/Libraries/XMCLib/inc\xmc_usic.h **** __STATIC_INLINE bool XMC_USIC_IsModuleValid(const XMC_USIC_t *const module)
 536:C:/Workspaces/DAVE4/RGB_led/Libraries/XMCLib/inc\xmc_usic.h **** {
 537:C:/Workspaces/DAVE4/RGB_led/Libraries/XMCLib/inc\xmc_usic.h ****   bool tmp;
 538:C:/Workspaces/DAVE4/RGB_led/Libraries/XMCLib/inc\xmc_usic.h **** 
 539:C:/Workspaces/DAVE4/RGB_led/Libraries/XMCLib/inc\xmc_usic.h ****   tmp = (module == XMC_USIC0);
 540:C:/Workspaces/DAVE4/RGB_led/Libraries/XMCLib/inc\xmc_usic.h **** #if defined(XMC_USIC1)  
 541:C:/Workspaces/DAVE4/RGB_led/Libraries/XMCLib/inc\xmc_usic.h ****   tmp = tmp || (module == XMC_USIC1);
 542:C:/Workspaces/DAVE4/RGB_led/Libraries/XMCLib/inc\xmc_usic.h **** #endif
 543:C:/Workspaces/DAVE4/RGB_led/Libraries/XMCLib/inc\xmc_usic.h **** #if defined(XMC_USIC2)  
 544:C:/Workspaces/DAVE4/RGB_led/Libraries/XMCLib/inc\xmc_usic.h ****   tmp = tmp || (module == XMC_USIC2);
 545:C:/Workspaces/DAVE4/RGB_led/Libraries/XMCLib/inc\xmc_usic.h **** #endif
 546:C:/Workspaces/DAVE4/RGB_led/Libraries/XMCLib/inc\xmc_usic.h **** 
 547:C:/Workspaces/DAVE4/RGB_led/Libraries/XMCLib/inc\xmc_usic.h ****   return tmp;
 548:C:/Workspaces/DAVE4/RGB_led/Libraries/XMCLib/inc\xmc_usic.h **** }
 549:C:/Workspaces/DAVE4/RGB_led/Libraries/XMCLib/inc\xmc_usic.h **** 
 550:C:/Workspaces/DAVE4/RGB_led/Libraries/XMCLib/inc\xmc_usic.h **** __STATIC_INLINE bool XMC_USIC_IsChannelValid(const XMC_USIC_CH_t *const channel)
 551:C:/Workspaces/DAVE4/RGB_led/Libraries/XMCLib/inc\xmc_usic.h **** {
 552:C:/Workspaces/DAVE4/RGB_led/Libraries/XMCLib/inc\xmc_usic.h ****   bool tmp;
 553:C:/Workspaces/DAVE4/RGB_led/Libraries/XMCLib/inc\xmc_usic.h **** 
 554:C:/Workspaces/DAVE4/RGB_led/Libraries/XMCLib/inc\xmc_usic.h ****   tmp = ((channel == XMC_USIC0_CH0) || (channel == XMC_USIC0_CH1));
 555:C:/Workspaces/DAVE4/RGB_led/Libraries/XMCLib/inc\xmc_usic.h **** #if defined(XMC_USIC1)  
 556:C:/Workspaces/DAVE4/RGB_led/Libraries/XMCLib/inc\xmc_usic.h ****   tmp = tmp || ((channel == XMC_USIC1_CH0) || (channel == XMC_USIC1_CH1));
 557:C:/Workspaces/DAVE4/RGB_led/Libraries/XMCLib/inc\xmc_usic.h **** #endif
 558:C:/Workspaces/DAVE4/RGB_led/Libraries/XMCLib/inc\xmc_usic.h **** #if defined(XMC_USIC2)  
 559:C:/Workspaces/DAVE4/RGB_led/Libraries/XMCLib/inc\xmc_usic.h ****   tmp = tmp || ((channel == XMC_USIC2_CH0) || (channel == XMC_USIC2_CH1));
 560:C:/Workspaces/DAVE4/RGB_led/Libraries/XMCLib/inc\xmc_usic.h **** #endif
 561:C:/Workspaces/DAVE4/RGB_led/Libraries/XMCLib/inc\xmc_usic.h **** 
 562:C:/Workspaces/DAVE4/RGB_led/Libraries/XMCLib/inc\xmc_usic.h ****   return tmp;
 563:C:/Workspaces/DAVE4/RGB_led/Libraries/XMCLib/inc\xmc_usic.h **** }
 564:C:/Workspaces/DAVE4/RGB_led/Libraries/XMCLib/inc\xmc_usic.h **** 
 565:C:/Workspaces/DAVE4/RGB_led/Libraries/XMCLib/inc\xmc_usic.h **** /* Common APIs */
 566:C:/Workspaces/DAVE4/RGB_led/Libraries/XMCLib/inc\xmc_usic.h **** 
 567:C:/Workspaces/DAVE4/RGB_led/Libraries/XMCLib/inc\xmc_usic.h **** /**
 568:C:/Workspaces/DAVE4/RGB_led/Libraries/XMCLib/inc\xmc_usic.h ****  * @param  usic Pointer to USIC module handler of type @ref XMC_USIC_t.\n
 569:C:/Workspaces/DAVE4/RGB_led/Libraries/XMCLib/inc\xmc_usic.h ****  * 				\b Range: @ref XMC_USIC0 to @ref XMC_USIC2 based on device support.
 570:C:/Workspaces/DAVE4/RGB_led/Libraries/XMCLib/inc\xmc_usic.h ****  * @return None
 571:C:/Workspaces/DAVE4/RGB_led/Libraries/XMCLib/inc\xmc_usic.h ****  * 
 572:C:/Workspaces/DAVE4/RGB_led/Libraries/XMCLib/inc\xmc_usic.h ****  * \par<b>Description</b><br>
 573:C:/Workspaces/DAVE4/RGB_led/Libraries/XMCLib/inc\xmc_usic.h ****  * Enables the USIC module.\n\n
 574:C:/Workspaces/DAVE4/RGB_led/Libraries/XMCLib/inc\xmc_usic.h ****  * Enables the clock for the USIC module by following the
 575:C:/Workspaces/DAVE4/RGB_led/Libraries/XMCLib/inc\xmc_usic.h ****  * clock enabling sequence for the selected device.
 576:C:/Workspaces/DAVE4/RGB_led/Libraries/XMCLib/inc\xmc_usic.h ****  *
 577:C:/Workspaces/DAVE4/RGB_led/Libraries/XMCLib/inc\xmc_usic.h ****  * \par<b>Related APIs:</b><BR>
 578:C:/Workspaces/DAVE4/RGB_led/Libraries/XMCLib/inc\xmc_usic.h ****  * XMC_USIC_CH_Enable(), XMC_USIC_Disable() \n\n\n
 579:C:/Workspaces/DAVE4/RGB_led/Libraries/XMCLib/inc\xmc_usic.h ****  */
 580:C:/Workspaces/DAVE4/RGB_led/Libraries/XMCLib/inc\xmc_usic.h **** void XMC_USIC_Enable(XMC_USIC_t *const usic);
 581:C:/Workspaces/DAVE4/RGB_led/Libraries/XMCLib/inc\xmc_usic.h **** /**
 582:C:/Workspaces/DAVE4/RGB_led/Libraries/XMCLib/inc\xmc_usic.h ****  * @param  usic Pointer to USIC module handler of type @ref XMC_USIC_t.\n
 583:C:/Workspaces/DAVE4/RGB_led/Libraries/XMCLib/inc\xmc_usic.h ****  * 				\b Range: @ref XMC_USIC0 to @ref XMC_USIC2 based on device support.
 584:C:/Workspaces/DAVE4/RGB_led/Libraries/XMCLib/inc\xmc_usic.h ****  * @return None
 585:C:/Workspaces/DAVE4/RGB_led/Libraries/XMCLib/inc\xmc_usic.h ****  *
 586:C:/Workspaces/DAVE4/RGB_led/Libraries/XMCLib/inc\xmc_usic.h ****  * \par<b>Description</b><br>
 587:C:/Workspaces/DAVE4/RGB_led/Libraries/XMCLib/inc\xmc_usic.h ****  * Disables the USIC module.\n\n
 588:C:/Workspaces/DAVE4/RGB_led/Libraries/XMCLib/inc\xmc_usic.h ****  * Disables the clock for the USIC module by following the clock
 589:C:/Workspaces/DAVE4/RGB_led/Libraries/XMCLib/inc\xmc_usic.h ****  * disabling sequence for the selected device.
 590:C:/Workspaces/DAVE4/RGB_led/Libraries/XMCLib/inc\xmc_usic.h ****  *
 591:C:/Workspaces/DAVE4/RGB_led/Libraries/XMCLib/inc\xmc_usic.h ****  * \par<b>Related APIs:</b><BR>
 592:C:/Workspaces/DAVE4/RGB_led/Libraries/XMCLib/inc\xmc_usic.h ****  * XMC_USIC_CH_Disable(), XMC_USIC_Enable() \n\n\n
 593:C:/Workspaces/DAVE4/RGB_led/Libraries/XMCLib/inc\xmc_usic.h ****  */
 594:C:/Workspaces/DAVE4/RGB_led/Libraries/XMCLib/inc\xmc_usic.h **** void XMC_USIC_Disable(XMC_USIC_t *const usic);
 595:C:/Workspaces/DAVE4/RGB_led/Libraries/XMCLib/inc\xmc_usic.h **** /**
 596:C:/Workspaces/DAVE4/RGB_led/Libraries/XMCLib/inc\xmc_usic.h ****  * @param  channel Pointer to USIC channel handler of type @ref XMC_USIC_CH_t \n
 597:C:/Workspaces/DAVE4/RGB_led/Libraries/XMCLib/inc\xmc_usic.h ****  * 				   \b Range: @ref XMC_USIC0_CH0, @ref XMC_USIC0_CH1 to @ref XMC_USIC2_CH1 based on device su
 598:C:/Workspaces/DAVE4/RGB_led/Libraries/XMCLib/inc\xmc_usic.h ****  * @return None
 599:C:/Workspaces/DAVE4/RGB_led/Libraries/XMCLib/inc\xmc_usic.h ****  *
 600:C:/Workspaces/DAVE4/RGB_led/Libraries/XMCLib/inc\xmc_usic.h ****  * \par<b>Description</b><br>
 601:C:/Workspaces/DAVE4/RGB_led/Libraries/XMCLib/inc\xmc_usic.h ****  * Enables the USIC channel. \n\n
 602:C:/Workspaces/DAVE4/RGB_led/Libraries/XMCLib/inc\xmc_usic.h ****  * USIC channel is enabled by setting the module enable bit in KSCFG register bitfield MODEN.
 603:C:/Workspaces/DAVE4/RGB_led/Libraries/XMCLib/inc\xmc_usic.h ****  * On enabling, the channel is set to idle mode.
 604:C:/Workspaces/DAVE4/RGB_led/Libraries/XMCLib/inc\xmc_usic.h ****  *
 605:C:/Workspaces/DAVE4/RGB_led/Libraries/XMCLib/inc\xmc_usic.h ****  * \par<b>Related APIs:</b><BR>
 606:C:/Workspaces/DAVE4/RGB_led/Libraries/XMCLib/inc\xmc_usic.h ****  * XMC_USIC_CH_Disable(), XMC_USIC_Enable() \n\n\n
 607:C:/Workspaces/DAVE4/RGB_led/Libraries/XMCLib/inc\xmc_usic.h ****  */
 608:C:/Workspaces/DAVE4/RGB_led/Libraries/XMCLib/inc\xmc_usic.h **** void XMC_USIC_CH_Enable(XMC_USIC_CH_t *const channel);
 609:C:/Workspaces/DAVE4/RGB_led/Libraries/XMCLib/inc\xmc_usic.h **** /**
 610:C:/Workspaces/DAVE4/RGB_led/Libraries/XMCLib/inc\xmc_usic.h ****  * @param  channel Pointer to USIC channel handler of type @ref XMC_USIC_CH_t \n
 611:C:/Workspaces/DAVE4/RGB_led/Libraries/XMCLib/inc\xmc_usic.h ****  * 				   \b Range: @ref XMC_USIC0_CH0, @ref XMC_USIC0_CH1 to @ref XMC_USIC2_CH1 based on device su
 612:C:/Workspaces/DAVE4/RGB_led/Libraries/XMCLib/inc\xmc_usic.h ****  * @return None
 613:C:/Workspaces/DAVE4/RGB_led/Libraries/XMCLib/inc\xmc_usic.h ****  *
 614:C:/Workspaces/DAVE4/RGB_led/Libraries/XMCLib/inc\xmc_usic.h ****  * \par<b>Description</b><br>
 615:C:/Workspaces/DAVE4/RGB_led/Libraries/XMCLib/inc\xmc_usic.h ****  * Disables the USIC channel.\n\n
 616:C:/Workspaces/DAVE4/RGB_led/Libraries/XMCLib/inc\xmc_usic.h ****  * USIC channel is disabled by setting the module enable bit(MDEN) to 0 in the register KSCFG.
 617:C:/Workspaces/DAVE4/RGB_led/Libraries/XMCLib/inc\xmc_usic.h ****  *
 618:C:/Workspaces/DAVE4/RGB_led/Libraries/XMCLib/inc\xmc_usic.h ****  * \par<b>Related APIs:</b><BR>
 619:C:/Workspaces/DAVE4/RGB_led/Libraries/XMCLib/inc\xmc_usic.h ****  * XMC_USIC_CH_Enable(), XMC_USIC_Disable() \n\n\n
 620:C:/Workspaces/DAVE4/RGB_led/Libraries/XMCLib/inc\xmc_usic.h ****  */
 621:C:/Workspaces/DAVE4/RGB_led/Libraries/XMCLib/inc\xmc_usic.h **** void XMC_USIC_CH_Disable(XMC_USIC_CH_t *const channel);
 622:C:/Workspaces/DAVE4/RGB_led/Libraries/XMCLib/inc\xmc_usic.h **** 
 623:C:/Workspaces/DAVE4/RGB_led/Libraries/XMCLib/inc\xmc_usic.h **** /**
 624:C:/Workspaces/DAVE4/RGB_led/Libraries/XMCLib/inc\xmc_usic.h ****  * @param  channel Pointer to USIC channel handler of type @ref XMC_USIC_CH_t \n
 625:C:/Workspaces/DAVE4/RGB_led/Libraries/XMCLib/inc\xmc_usic.h ****  * 				   \b Range: @ref XMC_USIC0_CH0, @ref XMC_USIC0_CH1 to @ref XMC_USIC2_CH1 based on device su
 626:C:/Workspaces/DAVE4/RGB_led/Libraries/XMCLib/inc\xmc_usic.h ****  * @param  rate Desired baudrate. \b Range: minimum value = 100, maximum value depends on the perip
 627:C:/Workspaces/DAVE4/RGB_led/Libraries/XMCLib/inc\xmc_usic.h ****  * 				and \a oversampling. Maximum baudrate can be derived using the formula: (fperiph * 1023)/(10
 628:C:/Workspaces/DAVE4/RGB_led/Libraries/XMCLib/inc\xmc_usic.h ****  * @param  oversampling Required oversampling. The value indicates the number of time quanta for on
 629:C:/Workspaces/DAVE4/RGB_led/Libraries/XMCLib/inc\xmc_usic.h ****  * 						This can be related to the number of samples for each logic state of the data signal. \n
 630:C:/Workspaces/DAVE4/RGB_led/Libraries/XMCLib/inc\xmc_usic.h ****  * 						\b Range: 1 to 32. Value should be chosen based on the protocol used.
 631:C:/Workspaces/DAVE4/RGB_led/Libraries/XMCLib/inc\xmc_usic.h ****  * @return Status indicating the baudrate configuration.\n
 632:C:/Workspaces/DAVE4/RGB_led/Libraries/XMCLib/inc\xmc_usic.h ****  * 			\b Range: @ref XMC_USIC_CH_STATUS_OK if baudrate is successfully configured,
 633:C:/Workspaces/DAVE4/RGB_led/Libraries/XMCLib/inc\xmc_usic.h ****  * 					  @ref XMC_USIC_CH_STATUS_ERROR if desired baudrate or oversampling is invalid.
 634:C:/Workspaces/DAVE4/RGB_led/Libraries/XMCLib/inc\xmc_usic.h ****  *
 635:C:/Workspaces/DAVE4/RGB_led/Libraries/XMCLib/inc\xmc_usic.h ****  * \par<b>Description</b><br>
 636:C:/Workspaces/DAVE4/RGB_led/Libraries/XMCLib/inc\xmc_usic.h ****  * Configures the baudrate of the USIC channel. \n\n
 637:C:/Workspaces/DAVE4/RGB_led/Libraries/XMCLib/inc\xmc_usic.h ****  * Baudrate is configured by considering the peripheral frequency and the desired baudrate.
 638:C:/Workspaces/DAVE4/RGB_led/Libraries/XMCLib/inc\xmc_usic.h ****  * Optimum values of FDR->STEP and BRG->PDIV are calulated and used for generating the desired
 639:C:/Workspaces/DAVE4/RGB_led/Libraries/XMCLib/inc\xmc_usic.h ****  * baudrate.
 640:C:/Workspaces/DAVE4/RGB_led/Libraries/XMCLib/inc\xmc_usic.h ****  *
 641:C:/Workspaces/DAVE4/RGB_led/Libraries/XMCLib/inc\xmc_usic.h ****  * \par<b>Related APIs:</b><BR>
 642:C:/Workspaces/DAVE4/RGB_led/Libraries/XMCLib/inc\xmc_usic.h ****  * XMC_USIC_CH_SetStartTransmisionMode(), XMC_USIC_CH_SetInputSource() \n\n\n
 643:C:/Workspaces/DAVE4/RGB_led/Libraries/XMCLib/inc\xmc_usic.h ****  */
 644:C:/Workspaces/DAVE4/RGB_led/Libraries/XMCLib/inc\xmc_usic.h **** XMC_USIC_CH_STATUS_t XMC_USIC_CH_SetBaudrate(XMC_USIC_CH_t *const channel, uint32_t rate, uint32_t 
 645:C:/Workspaces/DAVE4/RGB_led/Libraries/XMCLib/inc\xmc_usic.h **** 
 646:C:/Workspaces/DAVE4/RGB_led/Libraries/XMCLib/inc\xmc_usic.h **** /**
 647:C:/Workspaces/DAVE4/RGB_led/Libraries/XMCLib/inc\xmc_usic.h ****  * @param  channel Pointer to USIC channel handler of type @ref XMC_USIC_CH_t \n
 648:C:/Workspaces/DAVE4/RGB_led/Libraries/XMCLib/inc\xmc_usic.h ****  * 				   \b Range: @ref XMC_USIC0_CH0, @ref XMC_USIC0_CH1 to @ref XMC_USIC2_CH1 based on device su
 649:C:/Workspaces/DAVE4/RGB_led/Libraries/XMCLib/inc\xmc_usic.h ****  * @param  pdiv Desired divider for the external frequency input. \b Range: minimum value = 1, maxi
 650:C:/Workspaces/DAVE4/RGB_led/Libraries/XMCLib/inc\xmc_usic.h ****  * @param  oversampling Required oversampling. The value indicates the number of time quanta for on
 651:C:/Workspaces/DAVE4/RGB_led/Libraries/XMCLib/inc\xmc_usic.h ****  * 						This can be related to the number of samples for each logic state of the data signal. \n
 652:C:/Workspaces/DAVE4/RGB_led/Libraries/XMCLib/inc\xmc_usic.h ****  * 						\b Range: 1 to 32. Value should be chosen based on the protocol used.
 653:C:/Workspaces/DAVE4/RGB_led/Libraries/XMCLib/inc\xmc_usic.h ****  * @param  combination_mode Selects which edge of the synchronized(and optionally filtered) signal 
 654:C:/Workspaces/DAVE4/RGB_led/Libraries/XMCLib/inc\xmc_usic.h ****  *                          output DXnT of the input stage.
 655:C:/Workspaces/DAVE4/RGB_led/Libraries/XMCLib/inc\xmc_usic.h ****  *
 656:C:/Workspaces/DAVE4/RGB_led/Libraries/XMCLib/inc\xmc_usic.h ****  * @return None
 657:C:/Workspaces/DAVE4/RGB_led/Libraries/XMCLib/inc\xmc_usic.h ****  *
 658:C:/Workspaces/DAVE4/RGB_led/Libraries/XMCLib/inc\xmc_usic.h ****  * \par<b>Description</b><br>
 659:C:/Workspaces/DAVE4/RGB_led/Libraries/XMCLib/inc\xmc_usic.h ****  * Enables the external frequency input for the Baudrate Generator and configures the divider, over
 660:C:/Workspaces/DAVE4/RGB_led/Libraries/XMCLib/inc\xmc_usic.h ****  * the combination mode of the USIC channel. \n\n
 661:C:/Workspaces/DAVE4/RGB_led/Libraries/XMCLib/inc\xmc_usic.h ****  *
 662:C:/Workspaces/DAVE4/RGB_led/Libraries/XMCLib/inc\xmc_usic.h ****  * \par<b>Related APIs:</b><BR>
 663:C:/Workspaces/DAVE4/RGB_led/Libraries/XMCLib/inc\xmc_usic.h ****  * XMC_USIC_CH_SetBRGInputClockSource(), XMC_USIC_CH_SetInputTriggerCombinationMode() \n\n\n
 664:C:/Workspaces/DAVE4/RGB_led/Libraries/XMCLib/inc\xmc_usic.h ****  */
 665:C:/Workspaces/DAVE4/RGB_led/Libraries/XMCLib/inc\xmc_usic.h **** void XMC_USIC_CH_ConfigExternalInputSignalToBRG(XMC_USIC_CH_t *const channel,
 666:C:/Workspaces/DAVE4/RGB_led/Libraries/XMCLib/inc\xmc_usic.h **** 		                                         const uint16_t pdiv,
 667:C:/Workspaces/DAVE4/RGB_led/Libraries/XMCLib/inc\xmc_usic.h **** 												 const uint32_t oversampling,
 668:C:/Workspaces/DAVE4/RGB_led/Libraries/XMCLib/inc\xmc_usic.h **** 												 const XMC_USIC_CH_INPUT_COMBINATION_MODE_t combination_mode);
 669:C:/Workspaces/DAVE4/RGB_led/Libraries/XMCLib/inc\xmc_usic.h **** 
 670:C:/Workspaces/DAVE4/RGB_led/Libraries/XMCLib/inc\xmc_usic.h **** /**
 671:C:/Workspaces/DAVE4/RGB_led/Libraries/XMCLib/inc\xmc_usic.h ****  * @param  channel Pointer to USIC channel handler of type @ref XMC_USIC_CH_t \n
 672:C:/Workspaces/DAVE4/RGB_led/Libraries/XMCLib/inc\xmc_usic.h ****  * 				   \b Range: @ref XMC_USIC0_CH0, @ref XMC_USIC0_CH1 to @ref XMC_USIC2_CH1 based on device su
 673:C:/Workspaces/DAVE4/RGB_led/Libraries/XMCLib/inc\xmc_usic.h ****  * @param  input USIC channel input stage of type @ref XMC_USIC_CH_INPUT_t. \n
 674:C:/Workspaces/DAVE4/RGB_led/Libraries/XMCLib/inc\xmc_usic.h ****  * 				 \b Range: @ref XMC_USIC_CH_INPUT_DX0 to @ref XMC_USIC_CH_INPUT_DX5
 675:C:/Workspaces/DAVE4/RGB_led/Libraries/XMCLib/inc\xmc_usic.h ****  * @param  source Input source select for the input stage. The table below maps the enum value with
 676:C:/Workspaces/DAVE4/RGB_led/Libraries/XMCLib/inc\xmc_usic.h ****  * <table><tr><td>0</td><td>DXnA</td></tr><tr><td>1</td><td>DXnB</td></tr><tr><td>2</td><td>DXnC</t
 677:C:/Workspaces/DAVE4/RGB_led/Libraries/XMCLib/inc\xmc_usic.h ****  * <tr><td>4</td><td>DXnE</td></tr><tr><td>5</td><td>DXnF</td></tr><tr><td>6</td><td>DXnG</td></tr>
 678:C:/Workspaces/DAVE4/RGB_led/Libraries/XMCLib/inc\xmc_usic.h ****  * </tr></table>
 679:C:/Workspaces/DAVE4/RGB_led/Libraries/XMCLib/inc\xmc_usic.h ****  * @return None
 680:C:/Workspaces/DAVE4/RGB_led/Libraries/XMCLib/inc\xmc_usic.h ****  *
 681:C:/Workspaces/DAVE4/RGB_led/Libraries/XMCLib/inc\xmc_usic.h ****  * \par<b>Description</b><br>
 682:C:/Workspaces/DAVE4/RGB_led/Libraries/XMCLib/inc\xmc_usic.h ****  * Selects the data source for USIC input stage.\n\n
 683:C:/Workspaces/DAVE4/RGB_led/Libraries/XMCLib/inc\xmc_usic.h ****  * Selects the input data signal source among DXnA, DXnB.. DXnG for the input stage. The API can be
 684:C:/Workspaces/DAVE4/RGB_led/Libraries/XMCLib/inc\xmc_usic.h ****  * like DX0CR, DX1CR etc. 
 685:C:/Workspaces/DAVE4/RGB_led/Libraries/XMCLib/inc\xmc_usic.h ****  *  
 686:C:/Workspaces/DAVE4/RGB_led/Libraries/XMCLib/inc\xmc_usic.h ****  * \par<b>Related APIs:</b><BR>
 687:C:/Workspaces/DAVE4/RGB_led/Libraries/XMCLib/inc\xmc_usic.h ****  * XMC_USIC_CH_EnableInputInversion(), XMC_USIC_CH_EnableInputDigitalFilter(), XMC_USIC_CH_EnableIn
 688:C:/Workspaces/DAVE4/RGB_led/Libraries/XMCLib/inc\xmc_usic.h ****  * XMC_USIC_CH_SetInputSamplingFreq()\n\n\n
 689:C:/Workspaces/DAVE4/RGB_led/Libraries/XMCLib/inc\xmc_usic.h ****  */
 690:C:/Workspaces/DAVE4/RGB_led/Libraries/XMCLib/inc\xmc_usic.h **** __STATIC_INLINE void XMC_USIC_CH_SetInputSource(XMC_USIC_CH_t *const channel, const XMC_USIC_CH_INP
 691:C:/Workspaces/DAVE4/RGB_led/Libraries/XMCLib/inc\xmc_usic.h **** {
 211              	 .loc 2 691 0
 212              	 .cfi_startproc
 213 0000 80B5     	 push {r7,lr}
 214              	.LCFI6:
 215              	 .cfi_def_cfa_offset 8
 216              	 .cfi_offset 7,-8
 217              	 .cfi_offset 14,-4
 218 0002 82B0     	 sub sp,sp,#8
 219              	.LCFI7:
 220              	 .cfi_def_cfa_offset 16
 221 0004 00AF     	 add r7,sp,#0
 222              	.LCFI8:
 223              	 .cfi_def_cfa_register 7
 224 0006 7860     	 str r0,[r7,#4]
 225 0008 081C     	 mov r0,r1
 226 000a 111C     	 mov r1,r2
 227 000c FB1C     	 add r3,r7,#3
 228 000e 021C     	 add r2,r0,#0
 229 0010 1A70     	 strb r2,[r3]
 230 0012 BB1C     	 add r3,r7,#2
 231 0014 0A1C     	 add r2,r1,#0
 232 0016 1A70     	 strb r2,[r3]
 692:C:/Workspaces/DAVE4/RGB_led/Libraries/XMCLib/inc\xmc_usic.h ****   channel->DXCR[input] = (uint32_t)((channel->DXCR[input] & (uint32_t)(~USIC_CH_DXCR_DSEL_Msk)) |
 233              	 .loc 2 692 0
 234 0018 FB1C     	 add r3,r7,#3
 235 001a 1878     	 ldrb r0,[r3]
 236 001c FB1C     	 add r3,r7,#3
 237 001e 1B78     	 ldrb r3,[r3]
 238 0020 7A68     	 ldr r2,[r7,#4]
 239 0022 0633     	 add r3,r3,#6
 240 0024 9B00     	 lsl r3,r3,#2
 241 0026 D318     	 add r3,r2,r3
 242 0028 5B68     	 ldr r3,[r3,#4]
 243 002a 0722     	 mov r2,#7
 244 002c 9343     	 bic r3,r2
 245 002e 1A1C     	 mov r2,r3
 693:C:/Workspaces/DAVE4/RGB_led/Libraries/XMCLib/inc\xmc_usic.h ****                          ((uint32_t)source << USIC_CH_DXCR_DSEL_Pos));
 246              	 .loc 2 693 0
 247 0030 BB1C     	 add r3,r7,#2
 248 0032 1B78     	 ldrb r3,[r3]
 692:C:/Workspaces/DAVE4/RGB_led/Libraries/XMCLib/inc\xmc_usic.h ****   channel->DXCR[input] = (uint32_t)((channel->DXCR[input] & (uint32_t)(~USIC_CH_DXCR_DSEL_Msk)) |
 249              	 .loc 2 692 0
 250 0034 1A43     	 orr r2,r3
 251 0036 7968     	 ldr r1,[r7,#4]
 252 0038 831D     	 add r3,r0,#6
 253 003a 9B00     	 lsl r3,r3,#2
 254 003c CB18     	 add r3,r1,r3
 255 003e 5A60     	 str r2,[r3,#4]
 694:C:/Workspaces/DAVE4/RGB_led/Libraries/XMCLib/inc\xmc_usic.h **** }
 256              	 .loc 2 694 0
 257 0040 BD46     	 mov sp,r7
 258 0042 02B0     	 add sp,sp,#8
 259              	 
 260 0044 80BD     	 pop {r7,pc}
 261              	 .cfi_endproc
 262              	.LFE62:
 264 0046 C046     	 .section .text.XMC_UART_CH_Start,"ax",%progbits
 265              	 .align 2
 266              	 .code 16
 267              	 .thumb_func
 269              	XMC_UART_CH_Start:
 270              	.LFB118:
 271              	 .file 3 "C:/Workspaces/DAVE4/RGB_led/Libraries/XMCLib/inc/xmc_uart.h"
   1:C:/Workspaces/DAVE4/RGB_led/Libraries/XMCLib/inc\xmc_uart.h ****  /**
   2:C:/Workspaces/DAVE4/RGB_led/Libraries/XMCLib/inc\xmc_uart.h ****  * @file xmc_uart.h
   3:C:/Workspaces/DAVE4/RGB_led/Libraries/XMCLib/inc\xmc_uart.h ****  * @date 2016-05-20
   4:C:/Workspaces/DAVE4/RGB_led/Libraries/XMCLib/inc\xmc_uart.h ****  *
   5:C:/Workspaces/DAVE4/RGB_led/Libraries/XMCLib/inc\xmc_uart.h ****  * @cond
   6:C:/Workspaces/DAVE4/RGB_led/Libraries/XMCLib/inc\xmc_uart.h **** ***************************************************************************************************
   7:C:/Workspaces/DAVE4/RGB_led/Libraries/XMCLib/inc\xmc_uart.h ****  * XMClib v2.1.8 - XMC Peripheral Driver Library 
   8:C:/Workspaces/DAVE4/RGB_led/Libraries/XMCLib/inc\xmc_uart.h ****  *
   9:C:/Workspaces/DAVE4/RGB_led/Libraries/XMCLib/inc\xmc_uart.h ****  * Copyright (c) 2015-2016, Infineon Technologies AG
  10:C:/Workspaces/DAVE4/RGB_led/Libraries/XMCLib/inc\xmc_uart.h ****  * All rights reserved.                        
  11:C:/Workspaces/DAVE4/RGB_led/Libraries/XMCLib/inc\xmc_uart.h ****  *                                             
  12:C:/Workspaces/DAVE4/RGB_led/Libraries/XMCLib/inc\xmc_uart.h ****  * Redistribution and use in source and binary forms, with or without modification,are permitted pr
  13:C:/Workspaces/DAVE4/RGB_led/Libraries/XMCLib/inc\xmc_uart.h ****  * following conditions are met:   
  14:C:/Workspaces/DAVE4/RGB_led/Libraries/XMCLib/inc\xmc_uart.h ****  *                                                                              
  15:C:/Workspaces/DAVE4/RGB_led/Libraries/XMCLib/inc\xmc_uart.h ****  * Redistributions of source code must retain the above copyright notice, this list of conditions a
  16:C:/Workspaces/DAVE4/RGB_led/Libraries/XMCLib/inc\xmc_uart.h ****  * disclaimer.                        
  17:C:/Workspaces/DAVE4/RGB_led/Libraries/XMCLib/inc\xmc_uart.h ****  * 
  18:C:/Workspaces/DAVE4/RGB_led/Libraries/XMCLib/inc\xmc_uart.h ****  * Redistributions in binary form must reproduce the above copyright notice, this list of condition
  19:C:/Workspaces/DAVE4/RGB_led/Libraries/XMCLib/inc\xmc_uart.h ****  * disclaimer in the documentation and/or other materials provided with the distribution.          
  20:C:/Workspaces/DAVE4/RGB_led/Libraries/XMCLib/inc\xmc_uart.h ****  * 
  21:C:/Workspaces/DAVE4/RGB_led/Libraries/XMCLib/inc\xmc_uart.h ****  * Neither the name of the copyright holders nor the names of its contributors may be used to endor
  22:C:/Workspaces/DAVE4/RGB_led/Libraries/XMCLib/inc\xmc_uart.h ****  * products derived from this software without specific prior written permission.                  
  23:C:/Workspaces/DAVE4/RGB_led/Libraries/XMCLib/inc\xmc_uart.h ****  *                                                                              
  24:C:/Workspaces/DAVE4/RGB_led/Libraries/XMCLib/inc\xmc_uart.h ****  * THIS SOFTWARE IS PROVIDED BY THE COPYRIGHT HOLDERS AND CONTRIBUTORS "AS IS" AND ANY EXPRESS OR I
  25:C:/Workspaces/DAVE4/RGB_led/Libraries/XMCLib/inc\xmc_uart.h ****  * INCLUDING, BUT NOT LIMITED TO, THE IMPLIED WARRANTIES OF MERCHANTABILITY AND FITNESS FOR A PARTI
  26:C:/Workspaces/DAVE4/RGB_led/Libraries/XMCLib/inc\xmc_uart.h ****  * DISCLAIMED. IN NO EVENT SHALL THE COPYRIGHT HOLDER OR CONTRIBUTORS BE LIABLE  FOR ANY DIRECT, IN
  27:C:/Workspaces/DAVE4/RGB_led/Libraries/XMCLib/inc\xmc_uart.h ****  * SPECIAL, EXEMPLARY, OR CONSEQUENTIAL DAMAGES (INCLUDING, BUT NOT LIMITED TO, PROCUREMENT OF SUBS
  28:C:/Workspaces/DAVE4/RGB_led/Libraries/XMCLib/inc\xmc_uart.h ****  * SERVICES; LOSS OF USE, DATA, OR PROFITS; OR BUSINESS INTERRUPTION) HOWEVER CAUSED AND ON ANY THE
  29:C:/Workspaces/DAVE4/RGB_led/Libraries/XMCLib/inc\xmc_uart.h ****  * WHETHER IN CONTRACT, STRICT LIABILITY,OR TORT (INCLUDING NEGLIGENCE OR OTHERWISE) ARISING IN ANY
  30:C:/Workspaces/DAVE4/RGB_led/Libraries/XMCLib/inc\xmc_uart.h ****  * OF THIS SOFTWARE, EVEN IF ADVISED OF THE POSSIBILITY OF SUCH DAMAGE.                            
  31:C:/Workspaces/DAVE4/RGB_led/Libraries/XMCLib/inc\xmc_uart.h ****  *                                                                              
  32:C:/Workspaces/DAVE4/RGB_led/Libraries/XMCLib/inc\xmc_uart.h ****  * To improve the quality of the software, users are encouraged to share modifications, enhancement
  33:C:/Workspaces/DAVE4/RGB_led/Libraries/XMCLib/inc\xmc_uart.h ****  * Infineon Technologies AG dave@infineon.com).                                                    
  34:C:/Workspaces/DAVE4/RGB_led/Libraries/XMCLib/inc\xmc_uart.h ****  **************************************************************************************************
  35:C:/Workspaces/DAVE4/RGB_led/Libraries/XMCLib/inc\xmc_uart.h ****  *
  36:C:/Workspaces/DAVE4/RGB_led/Libraries/XMCLib/inc\xmc_uart.h ****  * Change History
  37:C:/Workspaces/DAVE4/RGB_led/Libraries/XMCLib/inc\xmc_uart.h ****  * --------------
  38:C:/Workspaces/DAVE4/RGB_led/Libraries/XMCLib/inc\xmc_uart.h ****  *
  39:C:/Workspaces/DAVE4/RGB_led/Libraries/XMCLib/inc\xmc_uart.h ****  * 2015-02-20:
  40:C:/Workspaces/DAVE4/RGB_led/Libraries/XMCLib/inc\xmc_uart.h ****  *     - Initial
  41:C:/Workspaces/DAVE4/RGB_led/Libraries/XMCLib/inc\xmc_uart.h ****  *      
  42:C:/Workspaces/DAVE4/RGB_led/Libraries/XMCLib/inc\xmc_uart.h ****  * 2015-05-20:
  43:C:/Workspaces/DAVE4/RGB_led/Libraries/XMCLib/inc\xmc_uart.h ****  *     - Description updated <br>
  44:C:/Workspaces/DAVE4/RGB_led/Libraries/XMCLib/inc\xmc_uart.h ****  *     - Added XMC_UART_CH_TriggerServiceRequest() and XMC_UART_CH_SelectInterruptNodePointer <br>
  45:C:/Workspaces/DAVE4/RGB_led/Libraries/XMCLib/inc\xmc_uart.h ****  *
  46:C:/Workspaces/DAVE4/RGB_led/Libraries/XMCLib/inc\xmc_uart.h ****  * 2015-06-20:
  47:C:/Workspaces/DAVE4/RGB_led/Libraries/XMCLib/inc\xmc_uart.h ****  *     - Removed version macros and declaration of GetDriverVersion API <br>
  48:C:/Workspaces/DAVE4/RGB_led/Libraries/XMCLib/inc\xmc_uart.h ****  *
  49:C:/Workspaces/DAVE4/RGB_led/Libraries/XMCLib/inc\xmc_uart.h ****  * 2015-09-01:
  50:C:/Workspaces/DAVE4/RGB_led/Libraries/XMCLib/inc\xmc_uart.h ****  *     - Modified XMC_UART_CH_SetInputSource() for avoiding complete DXCR register overwriting. <br
  51:C:/Workspaces/DAVE4/RGB_led/Libraries/XMCLib/inc\xmc_uart.h ****  *     - Modified XMC_UART_CH_EVENT_t enum for supporting XMC_UART_CH_EnableEvent() and XMC_UART_CH
  52:C:/Workspaces/DAVE4/RGB_led/Libraries/XMCLib/inc\xmc_uart.h ****  *       for supporting multiple events configuration <br>
  53:C:/Workspaces/DAVE4/RGB_led/Libraries/XMCLib/inc\xmc_uart.h ****  * 
  54:C:/Workspaces/DAVE4/RGB_led/Libraries/XMCLib/inc\xmc_uart.h ****  * 2016-05-20:
  55:C:/Workspaces/DAVE4/RGB_led/Libraries/XMCLib/inc\xmc_uart.h ****  *     - Added XMC_UART_CH_EnableDataTransmission() and XMC_UART_CH_DisableDataTransmission()
  56:C:/Workspaces/DAVE4/RGB_led/Libraries/XMCLib/inc\xmc_uart.h ****  *
  57:C:/Workspaces/DAVE4/RGB_led/Libraries/XMCLib/inc\xmc_uart.h ****  * @endcond 
  58:C:/Workspaces/DAVE4/RGB_led/Libraries/XMCLib/inc\xmc_uart.h ****  *
  59:C:/Workspaces/DAVE4/RGB_led/Libraries/XMCLib/inc\xmc_uart.h ****  */
  60:C:/Workspaces/DAVE4/RGB_led/Libraries/XMCLib/inc\xmc_uart.h **** 
  61:C:/Workspaces/DAVE4/RGB_led/Libraries/XMCLib/inc\xmc_uart.h **** #ifndef XMC_UART_H
  62:C:/Workspaces/DAVE4/RGB_led/Libraries/XMCLib/inc\xmc_uart.h **** #define XMC_UART_H
  63:C:/Workspaces/DAVE4/RGB_led/Libraries/XMCLib/inc\xmc_uart.h **** 
  64:C:/Workspaces/DAVE4/RGB_led/Libraries/XMCLib/inc\xmc_uart.h **** /**************************************************************************************************
  65:C:/Workspaces/DAVE4/RGB_led/Libraries/XMCLib/inc\xmc_uart.h ****  * HEADER FILES
  66:C:/Workspaces/DAVE4/RGB_led/Libraries/XMCLib/inc\xmc_uart.h ****  **************************************************************************************************
  67:C:/Workspaces/DAVE4/RGB_led/Libraries/XMCLib/inc\xmc_uart.h **** 
  68:C:/Workspaces/DAVE4/RGB_led/Libraries/XMCLib/inc\xmc_uart.h **** #include "xmc_usic.h"
  69:C:/Workspaces/DAVE4/RGB_led/Libraries/XMCLib/inc\xmc_uart.h **** 
  70:C:/Workspaces/DAVE4/RGB_led/Libraries/XMCLib/inc\xmc_uart.h **** /**
  71:C:/Workspaces/DAVE4/RGB_led/Libraries/XMCLib/inc\xmc_uart.h ****  * @addtogroup XMClib XMC Peripheral Library
  72:C:/Workspaces/DAVE4/RGB_led/Libraries/XMCLib/inc\xmc_uart.h ****  * @{
  73:C:/Workspaces/DAVE4/RGB_led/Libraries/XMCLib/inc\xmc_uart.h ****  */
  74:C:/Workspaces/DAVE4/RGB_led/Libraries/XMCLib/inc\xmc_uart.h **** 
  75:C:/Workspaces/DAVE4/RGB_led/Libraries/XMCLib/inc\xmc_uart.h **** /**
  76:C:/Workspaces/DAVE4/RGB_led/Libraries/XMCLib/inc\xmc_uart.h ****  * @addtogroup UART
  77:C:/Workspaces/DAVE4/RGB_led/Libraries/XMCLib/inc\xmc_uart.h ****  * @brief Universal Asynchronous Receiver/Transmitter (UART) driver for XMC microcontroller family.
  78:C:/Workspaces/DAVE4/RGB_led/Libraries/XMCLib/inc\xmc_uart.h ****  *
  79:C:/Workspaces/DAVE4/RGB_led/Libraries/XMCLib/inc\xmc_uart.h ****  * The UART driver uses Universal Serial Interface Channel(USIC) module to implement UART protocol.
  80:C:/Workspaces/DAVE4/RGB_led/Libraries/XMCLib/inc\xmc_uart.h ****  * It provides APIs to configure USIC channel for UART communication. The driver enables the user
  81:C:/Workspaces/DAVE4/RGB_led/Libraries/XMCLib/inc\xmc_uart.h ****  * in getting the status of UART protocol events, configuring interrupt service requests, protocol
  82:C:/Workspaces/DAVE4/RGB_led/Libraries/XMCLib/inc\xmc_uart.h ****  * related parameter configuration etc.
  83:C:/Workspaces/DAVE4/RGB_led/Libraries/XMCLib/inc\xmc_uart.h ****  * 
  84:C:/Workspaces/DAVE4/RGB_led/Libraries/XMCLib/inc\xmc_uart.h ****  * UART driver features:
  85:C:/Workspaces/DAVE4/RGB_led/Libraries/XMCLib/inc\xmc_uart.h ****  * -# Configuration structure XMC_UART_CH_CONFIG_t and initialization function XMC_UART_CH_Init()
  86:C:/Workspaces/DAVE4/RGB_led/Libraries/XMCLib/inc\xmc_uart.h ****  * -# Enumeration of events with their bit masks @ref XMC_UART_CH_EVENT_t, @ref XMC_UART_CH_STATUS_
  87:C:/Workspaces/DAVE4/RGB_led/Libraries/XMCLib/inc\xmc_uart.h ****  * -# Allows the selection of input source for the DX0 input stage using the API XMC_UART_CH_SetInp
  88:C:/Workspaces/DAVE4/RGB_led/Libraries/XMCLib/inc\xmc_uart.h ****  * -# Allows configuration of baudrate using XMC_UART_CH_SetBaudrate() and configuration of data le
  89:C:/Workspaces/DAVE4/RGB_led/Libraries/XMCLib/inc\xmc_uart.h ****  XMC_UART_CH_SetWordLength() and XMC_UART_CH_SetFrameLength()
  90:C:/Workspaces/DAVE4/RGB_led/Libraries/XMCLib/inc\xmc_uart.h ****  * -# Provides the status of UART protocol events, XMC_UART_CH_GetStatusFlag()
  91:C:/Workspaces/DAVE4/RGB_led/Libraries/XMCLib/inc\xmc_uart.h ****  * -# Allows transmission of data using XMC_UART_CH_Transmit() and gets received data using XMC_UAR
  92:C:/Workspaces/DAVE4/RGB_led/Libraries/XMCLib/inc\xmc_uart.h ****  * 
  93:C:/Workspaces/DAVE4/RGB_led/Libraries/XMCLib/inc\xmc_uart.h ****  * @{
  94:C:/Workspaces/DAVE4/RGB_led/Libraries/XMCLib/inc\xmc_uart.h ****  */
  95:C:/Workspaces/DAVE4/RGB_led/Libraries/XMCLib/inc\xmc_uart.h **** 
  96:C:/Workspaces/DAVE4/RGB_led/Libraries/XMCLib/inc\xmc_uart.h **** /**************************************************************************************************
  97:C:/Workspaces/DAVE4/RGB_led/Libraries/XMCLib/inc\xmc_uart.h ****  * MACROS
  98:C:/Workspaces/DAVE4/RGB_led/Libraries/XMCLib/inc\xmc_uart.h ****  **************************************************************************************************
  99:C:/Workspaces/DAVE4/RGB_led/Libraries/XMCLib/inc\xmc_uart.h **** 
 100:C:/Workspaces/DAVE4/RGB_led/Libraries/XMCLib/inc\xmc_uart.h **** #if defined(USIC0)
 101:C:/Workspaces/DAVE4/RGB_led/Libraries/XMCLib/inc\xmc_uart.h **** #define XMC_UART0_CH0 XMC_USIC0_CH0 /**< USIC0 channel 0 base address */
 102:C:/Workspaces/DAVE4/RGB_led/Libraries/XMCLib/inc\xmc_uart.h **** #define XMC_UART0_CH1 XMC_USIC0_CH1 /**< USIC0 channel 1 base address */
 103:C:/Workspaces/DAVE4/RGB_led/Libraries/XMCLib/inc\xmc_uart.h **** #endif
 104:C:/Workspaces/DAVE4/RGB_led/Libraries/XMCLib/inc\xmc_uart.h **** 
 105:C:/Workspaces/DAVE4/RGB_led/Libraries/XMCLib/inc\xmc_uart.h **** #if defined(USIC1)
 106:C:/Workspaces/DAVE4/RGB_led/Libraries/XMCLib/inc\xmc_uart.h **** #define XMC_UART1_CH0 XMC_USIC1_CH0 /**< USIC1 channel 0 base address */
 107:C:/Workspaces/DAVE4/RGB_led/Libraries/XMCLib/inc\xmc_uart.h **** #define XMC_UART1_CH1 XMC_USIC1_CH1 /**< USIC1 channel 1 base address */
 108:C:/Workspaces/DAVE4/RGB_led/Libraries/XMCLib/inc\xmc_uart.h **** #endif
 109:C:/Workspaces/DAVE4/RGB_led/Libraries/XMCLib/inc\xmc_uart.h **** 
 110:C:/Workspaces/DAVE4/RGB_led/Libraries/XMCLib/inc\xmc_uart.h **** #if defined(USIC2)
 111:C:/Workspaces/DAVE4/RGB_led/Libraries/XMCLib/inc\xmc_uart.h **** #define XMC_UART2_CH0 XMC_USIC2_CH0 /**< USIC2 channel 0 base address */
 112:C:/Workspaces/DAVE4/RGB_led/Libraries/XMCLib/inc\xmc_uart.h **** #define XMC_UART2_CH1 XMC_USIC2_CH1 /**< USIC2 channel 1 base address */
 113:C:/Workspaces/DAVE4/RGB_led/Libraries/XMCLib/inc\xmc_uart.h **** #endif
 114:C:/Workspaces/DAVE4/RGB_led/Libraries/XMCLib/inc\xmc_uart.h **** 
 115:C:/Workspaces/DAVE4/RGB_led/Libraries/XMCLib/inc\xmc_uart.h **** /**************************************************************************************************
 116:C:/Workspaces/DAVE4/RGB_led/Libraries/XMCLib/inc\xmc_uart.h ****  * ENUMS
 117:C:/Workspaces/DAVE4/RGB_led/Libraries/XMCLib/inc\xmc_uart.h ****  **************************************************************************************************
 118:C:/Workspaces/DAVE4/RGB_led/Libraries/XMCLib/inc\xmc_uart.h **** 
 119:C:/Workspaces/DAVE4/RGB_led/Libraries/XMCLib/inc\xmc_uart.h **** /**
 120:C:/Workspaces/DAVE4/RGB_led/Libraries/XMCLib/inc\xmc_uart.h ****  * UART driver status
 121:C:/Workspaces/DAVE4/RGB_led/Libraries/XMCLib/inc\xmc_uart.h ****  */
 122:C:/Workspaces/DAVE4/RGB_led/Libraries/XMCLib/inc\xmc_uart.h **** typedef enum XMC_UART_CH_STATUS
 123:C:/Workspaces/DAVE4/RGB_led/Libraries/XMCLib/inc\xmc_uart.h **** {
 124:C:/Workspaces/DAVE4/RGB_led/Libraries/XMCLib/inc\xmc_uart.h ****   XMC_UART_CH_STATUS_OK,     /**< UART driver status : OK*/
 125:C:/Workspaces/DAVE4/RGB_led/Libraries/XMCLib/inc\xmc_uart.h ****   XMC_UART_CH_STATUS_ERROR,  /**< UART driver status : ERROR */
 126:C:/Workspaces/DAVE4/RGB_led/Libraries/XMCLib/inc\xmc_uart.h ****   XMC_UART_CH_STATUS_BUSY    /**< UART driver status : BUSY */
 127:C:/Workspaces/DAVE4/RGB_led/Libraries/XMCLib/inc\xmc_uart.h **** } XMC_UART_CH_STATUS_t;
 128:C:/Workspaces/DAVE4/RGB_led/Libraries/XMCLib/inc\xmc_uart.h **** 
 129:C:/Workspaces/DAVE4/RGB_led/Libraries/XMCLib/inc\xmc_uart.h **** /**
 130:C:/Workspaces/DAVE4/RGB_led/Libraries/XMCLib/inc\xmc_uart.h **** * UART portocol status. The enum values can be used for getting the status of UART channel.
 131:C:/Workspaces/DAVE4/RGB_led/Libraries/XMCLib/inc\xmc_uart.h **** *
 132:C:/Workspaces/DAVE4/RGB_led/Libraries/XMCLib/inc\xmc_uart.h **** */
 133:C:/Workspaces/DAVE4/RGB_led/Libraries/XMCLib/inc\xmc_uart.h **** typedef enum XMC_UART_CH_STATUS_FLAG
 134:C:/Workspaces/DAVE4/RGB_led/Libraries/XMCLib/inc\xmc_uart.h **** {
 135:C:/Workspaces/DAVE4/RGB_led/Libraries/XMCLib/inc\xmc_uart.h ****   XMC_UART_CH_STATUS_FLAG_TRANSMISSION_IDLE = USIC_CH_PSR_ASCMode_TXIDLE_Msk,                 /**< 
 136:C:/Workspaces/DAVE4/RGB_led/Libraries/XMCLib/inc\xmc_uart.h ****   XMC_UART_CH_STATUS_FLAG_RECEPTION_IDLE = USIC_CH_PSR_ASCMode_RXIDLE_Msk,                    /**< 
 137:C:/Workspaces/DAVE4/RGB_led/Libraries/XMCLib/inc\xmc_uart.h ****   XMC_UART_CH_STATUS_FLAG_SYNCHRONIZATION_BREAK_DETECTED = USIC_CH_PSR_ASCMode_SBD_Msk,       /**< 
 138:C:/Workspaces/DAVE4/RGB_led/Libraries/XMCLib/inc\xmc_uart.h ****   XMC_UART_CH_STATUS_FLAG_COLLISION_DETECTED = USIC_CH_PSR_ASCMode_COL_Msk,                   /**< 
 139:C:/Workspaces/DAVE4/RGB_led/Libraries/XMCLib/inc\xmc_uart.h ****   XMC_UART_CH_STATUS_FLAG_RECEIVER_NOISE_DETECTED = USIC_CH_PSR_ASCMode_RNS_Msk,              /**< 
 140:C:/Workspaces/DAVE4/RGB_led/Libraries/XMCLib/inc\xmc_uart.h ****   XMC_UART_CH_STATUS_FLAG_FORMAT_ERROR_IN_STOP_BIT_0 = USIC_CH_PSR_ASCMode_FER0_Msk,          /**< 
 141:C:/Workspaces/DAVE4/RGB_led/Libraries/XMCLib/inc\xmc_uart.h ****   XMC_UART_CH_STATUS_FLAG_FORMAT_ERROR_IN_STOP_BIT_1 = USIC_CH_PSR_ASCMode_FER1_Msk,          /**< 
 142:C:/Workspaces/DAVE4/RGB_led/Libraries/XMCLib/inc\xmc_uart.h ****   XMC_UART_CH_STATUS_FLAG_RECEIVE_FRAME_FINISHED = USIC_CH_PSR_ASCMode_RFF_Msk,               /**< 
 143:C:/Workspaces/DAVE4/RGB_led/Libraries/XMCLib/inc\xmc_uart.h ****   XMC_UART_CH_STATUS_FLAG_TRANSMITTER_FRAME_FINISHED = USIC_CH_PSR_ASCMode_TFF_Msk,           /**< 
 144:C:/Workspaces/DAVE4/RGB_led/Libraries/XMCLib/inc\xmc_uart.h ****   XMC_UART_CH_STATUS_FLAG_TRANSFER_STATUS_BUSY = USIC_CH_PSR_ASCMode_BUSY_Msk,                /**< 
 145:C:/Workspaces/DAVE4/RGB_led/Libraries/XMCLib/inc\xmc_uart.h ****   XMC_UART_CH_STATUS_FLAG_RECEIVER_START_INDICATION = USIC_CH_PSR_ASCMode_RSIF_Msk,           /**< 
 146:C:/Workspaces/DAVE4/RGB_led/Libraries/XMCLib/inc\xmc_uart.h ****   XMC_UART_CH_STATUS_FLAG_DATA_LOST_INDICATION = USIC_CH_PSR_ASCMode_DLIF_Msk,                /**< 
 147:C:/Workspaces/DAVE4/RGB_led/Libraries/XMCLib/inc\xmc_uart.h ****   XMC_UART_CH_STATUS_FLAG_TRANSMIT_SHIFT_INDICATION = USIC_CH_PSR_ASCMode_TSIF_Msk,           /**< 
 148:C:/Workspaces/DAVE4/RGB_led/Libraries/XMCLib/inc\xmc_uart.h ****   XMC_UART_CH_STATUS_FLAG_TRANSMIT_BUFFER_INDICATION = USIC_CH_PSR_ASCMode_TBIF_Msk,          /**< 
 149:C:/Workspaces/DAVE4/RGB_led/Libraries/XMCLib/inc\xmc_uart.h ****   XMC_UART_CH_STATUS_FLAG_RECEIVE_INDICATION = USIC_CH_PSR_ASCMode_RIF_Msk,                   /**< 
 150:C:/Workspaces/DAVE4/RGB_led/Libraries/XMCLib/inc\xmc_uart.h ****   XMC_UART_CH_STATUS_FLAG_ALTERNATIVE_RECEIVE_INDICATION = USIC_CH_PSR_ASCMode_AIF_Msk,       /**< 
 151:C:/Workspaces/DAVE4/RGB_led/Libraries/XMCLib/inc\xmc_uart.h ****   XMC_UART_CH_STATUS_FLAG_BAUD_RATE_GENERATOR_INDICATION = USIC_CH_PSR_ASCMode_BRGIF_Msk      /**< 
 152:C:/Workspaces/DAVE4/RGB_led/Libraries/XMCLib/inc\xmc_uart.h **** } XMC_UART_CH_STATUS_FLAG_t;
 153:C:/Workspaces/DAVE4/RGB_led/Libraries/XMCLib/inc\xmc_uart.h **** 
 154:C:/Workspaces/DAVE4/RGB_led/Libraries/XMCLib/inc\xmc_uart.h **** /**
 155:C:/Workspaces/DAVE4/RGB_led/Libraries/XMCLib/inc\xmc_uart.h **** * UART configuration events. The enums can be used for configuring events using the CCR register.
 156:C:/Workspaces/DAVE4/RGB_led/Libraries/XMCLib/inc\xmc_uart.h **** */
 157:C:/Workspaces/DAVE4/RGB_led/Libraries/XMCLib/inc\xmc_uart.h **** typedef enum XMC_CH_UART_EVENT
 158:C:/Workspaces/DAVE4/RGB_led/Libraries/XMCLib/inc\xmc_uart.h **** {
 159:C:/Workspaces/DAVE4/RGB_led/Libraries/XMCLib/inc\xmc_uart.h ****   XMC_UART_CH_EVENT_RECEIVE_START       = USIC_CH_CCR_RSIEN_Msk,  /**< Receive start event */
 160:C:/Workspaces/DAVE4/RGB_led/Libraries/XMCLib/inc\xmc_uart.h ****   XMC_UART_CH_EVENT_DATA_LOST           = USIC_CH_CCR_DLIEN_Msk,  /**< Data lost event */
 161:C:/Workspaces/DAVE4/RGB_led/Libraries/XMCLib/inc\xmc_uart.h ****   XMC_UART_CH_EVENT_TRANSMIT_SHIFT      = USIC_CH_CCR_TSIEN_Msk,  /**< Transmit shift event */
 162:C:/Workspaces/DAVE4/RGB_led/Libraries/XMCLib/inc\xmc_uart.h ****   XMC_UART_CH_EVENT_TRANSMIT_BUFFER     = USIC_CH_CCR_TBIEN_Msk,  /**< Transmit buffer event */
 163:C:/Workspaces/DAVE4/RGB_led/Libraries/XMCLib/inc\xmc_uart.h ****   XMC_UART_CH_EVENT_STANDARD_RECEIVE    = USIC_CH_CCR_RIEN_Msk,   /**< Receive event */
 164:C:/Workspaces/DAVE4/RGB_led/Libraries/XMCLib/inc\xmc_uart.h ****   XMC_UART_CH_EVENT_ALTERNATIVE_RECEIVE = USIC_CH_CCR_AIEN_Msk,   /**< Alternate receive event */
 165:C:/Workspaces/DAVE4/RGB_led/Libraries/XMCLib/inc\xmc_uart.h ****   XMC_UART_CH_EVENT_BAUD_RATE_GENERATOR = USIC_CH_CCR_BRGIEN_Msk, /**< Baudrate generator event */
 166:C:/Workspaces/DAVE4/RGB_led/Libraries/XMCLib/inc\xmc_uart.h ****   
 167:C:/Workspaces/DAVE4/RGB_led/Libraries/XMCLib/inc\xmc_uart.h ****   XMC_UART_CH_EVENT_SYNCHRONIZATION_BREAK = USIC_CH_PCR_ASCMode_SBIEN_Msk, /**< Event synchronizati
 168:C:/Workspaces/DAVE4/RGB_led/Libraries/XMCLib/inc\xmc_uart.h ****   XMC_UART_CH_EVENT_COLLISION = USIC_CH_PCR_ASCMode_CDEN_Msk,              /**< Event collision */
 169:C:/Workspaces/DAVE4/RGB_led/Libraries/XMCLib/inc\xmc_uart.h ****   XMC_UART_CH_EVENT_RECEIVER_NOISE = USIC_CH_PCR_ASCMode_RNIEN_Msk,        /**< Event receiver nois
 170:C:/Workspaces/DAVE4/RGB_led/Libraries/XMCLib/inc\xmc_uart.h ****   XMC_UART_CH_EVENT_FORMAT_ERROR = USIC_CH_PCR_ASCMode_FEIEN_Msk,          /**< Event format error 
 171:C:/Workspaces/DAVE4/RGB_led/Libraries/XMCLib/inc\xmc_uart.h ****   XMC_UART_CH_EVENT_FRAME_FINISHED = USIC_CH_PCR_ASCMode_FFIEN_Msk         /**< Event frame finishe
 172:C:/Workspaces/DAVE4/RGB_led/Libraries/XMCLib/inc\xmc_uart.h **** } XMC_UART_CH_EVENT_t;
 173:C:/Workspaces/DAVE4/RGB_led/Libraries/XMCLib/inc\xmc_uart.h **** 
 174:C:/Workspaces/DAVE4/RGB_led/Libraries/XMCLib/inc\xmc_uart.h **** /**
 175:C:/Workspaces/DAVE4/RGB_led/Libraries/XMCLib/inc\xmc_uart.h ****  * UART Input sampling frequency options
 176:C:/Workspaces/DAVE4/RGB_led/Libraries/XMCLib/inc\xmc_uart.h ****  */
 177:C:/Workspaces/DAVE4/RGB_led/Libraries/XMCLib/inc\xmc_uart.h **** typedef enum XMC_UART_CH_INPUT_SAMPLING_FREQ
 178:C:/Workspaces/DAVE4/RGB_led/Libraries/XMCLib/inc\xmc_uart.h **** {
 179:C:/Workspaces/DAVE4/RGB_led/Libraries/XMCLib/inc\xmc_uart.h ****   XMC_UART_CH_INPUT_SAMPLING_FREQ_FPERIPH            = XMC_USIC_CH_INPUT_SAMPLING_FREQ_FPERIPH,    
 180:C:/Workspaces/DAVE4/RGB_led/Libraries/XMCLib/inc\xmc_uart.h ****   XMC_UART_CH_INPUT_SAMPLING_FREQ_FRACTIONAL_DIVIDER = XMC_USIC_CH_INPUT_SAMPLING_FREQ_FRACTIONAL_D
 181:C:/Workspaces/DAVE4/RGB_led/Libraries/XMCLib/inc\xmc_uart.h **** } XMC_UART_CH_INPUT_SAMPLING_FREQ_t;
 182:C:/Workspaces/DAVE4/RGB_led/Libraries/XMCLib/inc\xmc_uart.h **** 
 183:C:/Workspaces/DAVE4/RGB_led/Libraries/XMCLib/inc\xmc_uart.h **** /**
 184:C:/Workspaces/DAVE4/RGB_led/Libraries/XMCLib/inc\xmc_uart.h ****  * UART input stages
 185:C:/Workspaces/DAVE4/RGB_led/Libraries/XMCLib/inc\xmc_uart.h ****  */
 186:C:/Workspaces/DAVE4/RGB_led/Libraries/XMCLib/inc\xmc_uart.h **** typedef enum XMC_UART_CH_INPUT
 187:C:/Workspaces/DAVE4/RGB_led/Libraries/XMCLib/inc\xmc_uart.h **** {
 188:C:/Workspaces/DAVE4/RGB_led/Libraries/XMCLib/inc\xmc_uart.h ****   XMC_UART_CH_INPUT_RXD = 0UL   /**< UART input stage DX0*/
 189:C:/Workspaces/DAVE4/RGB_led/Libraries/XMCLib/inc\xmc_uart.h **** #if UC_FAMILY == XMC1
 190:C:/Workspaces/DAVE4/RGB_led/Libraries/XMCLib/inc\xmc_uart.h ****   ,
 191:C:/Workspaces/DAVE4/RGB_led/Libraries/XMCLib/inc\xmc_uart.h ****   XMC_UART_CH_INPUT_RXD1 = 3UL, /**< UART input stage DX3*/
 192:C:/Workspaces/DAVE4/RGB_led/Libraries/XMCLib/inc\xmc_uart.h ****   XMC_UART_CH_INPUT_RXD2 = 5UL  /**< UART input stage DX5*/
 193:C:/Workspaces/DAVE4/RGB_led/Libraries/XMCLib/inc\xmc_uart.h **** #endif
 194:C:/Workspaces/DAVE4/RGB_led/Libraries/XMCLib/inc\xmc_uart.h **** } XMC_UART_CH_INPUT_t;
 195:C:/Workspaces/DAVE4/RGB_led/Libraries/XMCLib/inc\xmc_uart.h **** 
 196:C:/Workspaces/DAVE4/RGB_led/Libraries/XMCLib/inc\xmc_uart.h **** 
 197:C:/Workspaces/DAVE4/RGB_led/Libraries/XMCLib/inc\xmc_uart.h **** /**
 198:C:/Workspaces/DAVE4/RGB_led/Libraries/XMCLib/inc\xmc_uart.h ****  * UART channel interrupt node pointers
 199:C:/Workspaces/DAVE4/RGB_led/Libraries/XMCLib/inc\xmc_uart.h ****  */
 200:C:/Workspaces/DAVE4/RGB_led/Libraries/XMCLib/inc\xmc_uart.h **** typedef enum XMC_UART_CH_INTERRUPT_NODE_POINTER
 201:C:/Workspaces/DAVE4/RGB_led/Libraries/XMCLib/inc\xmc_uart.h **** {
 202:C:/Workspaces/DAVE4/RGB_led/Libraries/XMCLib/inc\xmc_uart.h ****   XMC_UART_CH_INTERRUPT_NODE_POINTER_TRANSMIT_SHIFT      = XMC_USIC_CH_INTERRUPT_NODE_POINTER_TRANS
 203:C:/Workspaces/DAVE4/RGB_led/Libraries/XMCLib/inc\xmc_uart.h ****   XMC_UART_CH_INTERRUPT_NODE_POINTER_TRANSMIT_BUFFER     = XMC_USIC_CH_INTERRUPT_NODE_POINTER_TRANS
 204:C:/Workspaces/DAVE4/RGB_led/Libraries/XMCLib/inc\xmc_uart.h ****   XMC_UART_CH_INTERRUPT_NODE_POINTER_RECEIVE             = XMC_USIC_CH_INTERRUPT_NODE_POINTER_RECEI
 205:C:/Workspaces/DAVE4/RGB_led/Libraries/XMCLib/inc\xmc_uart.h ****   XMC_UART_CH_INTERRUPT_NODE_POINTER_ALTERNATE_RECEIVE   = XMC_USIC_CH_INTERRUPT_NODE_POINTER_ALTER
 206:C:/Workspaces/DAVE4/RGB_led/Libraries/XMCLib/inc\xmc_uart.h ****   XMC_UART_CH_INTERRUPT_NODE_POINTER_PROTOCOL            = XMC_USIC_CH_INTERRUPT_NODE_POINTER_PROTO
 207:C:/Workspaces/DAVE4/RGB_led/Libraries/XMCLib/inc\xmc_uart.h **** } XMC_UART_CH_INTERRUPT_NODE_POINTER_t;
 208:C:/Workspaces/DAVE4/RGB_led/Libraries/XMCLib/inc\xmc_uart.h **** 
 209:C:/Workspaces/DAVE4/RGB_led/Libraries/XMCLib/inc\xmc_uart.h **** /**************************************************************************************************
 210:C:/Workspaces/DAVE4/RGB_led/Libraries/XMCLib/inc\xmc_uart.h ****  * DATA STRUCTURES
 211:C:/Workspaces/DAVE4/RGB_led/Libraries/XMCLib/inc\xmc_uart.h ****  **************************************************************************************************
 212:C:/Workspaces/DAVE4/RGB_led/Libraries/XMCLib/inc\xmc_uart.h **** 
 213:C:/Workspaces/DAVE4/RGB_led/Libraries/XMCLib/inc\xmc_uart.h **** /**
 214:C:/Workspaces/DAVE4/RGB_led/Libraries/XMCLib/inc\xmc_uart.h ****  * UART initialization structure
 215:C:/Workspaces/DAVE4/RGB_led/Libraries/XMCLib/inc\xmc_uart.h **** */
 216:C:/Workspaces/DAVE4/RGB_led/Libraries/XMCLib/inc\xmc_uart.h **** typedef struct XMC_UART_CH_CONFIG
 217:C:/Workspaces/DAVE4/RGB_led/Libraries/XMCLib/inc\xmc_uart.h **** {
 218:C:/Workspaces/DAVE4/RGB_led/Libraries/XMCLib/inc\xmc_uart.h ****   uint32_t baudrate;                         /**< Desired baudrate. \b Range: minimum= 100, maximum
 219:C:/Workspaces/DAVE4/RGB_led/Libraries/XMCLib/inc\xmc_uart.h ****   uint8_t data_bits;                         /**< Number of bits for the data field. Value configur
 220:C:/Workspaces/DAVE4/RGB_led/Libraries/XMCLib/inc\xmc_uart.h ****                                                   \b Range: minimum= 1, maximum= 16*/
 221:C:/Workspaces/DAVE4/RGB_led/Libraries/XMCLib/inc\xmc_uart.h ****   uint8_t frame_length;                      /**< Indicates nmber of bits in a frame. Configured as
 222:C:/Workspaces/DAVE4/RGB_led/Libraries/XMCLib/inc\xmc_uart.h ****                                                   \b Range: minimum= 1, maximum= 63*/
 223:C:/Workspaces/DAVE4/RGB_led/Libraries/XMCLib/inc\xmc_uart.h ****   uint8_t stop_bits;                         /**< Number of stop bits. \b Range: minimum= 1, maximu
 224:C:/Workspaces/DAVE4/RGB_led/Libraries/XMCLib/inc\xmc_uart.h ****   uint8_t oversampling;						           /**< Number of samples for a symbol(DCTQ).\b Range: minimum
 225:C:/Workspaces/DAVE4/RGB_led/Libraries/XMCLib/inc\xmc_uart.h ****   XMC_USIC_CH_PARITY_MODE_t parity_mode;     /**< Parity mode. \b Range: @ref XMC_USIC_CH_PARITY_MO
 226:C:/Workspaces/DAVE4/RGB_led/Libraries/XMCLib/inc\xmc_uart.h ****                                                   @ref XMC_USIC_CH_PARITY_MODE_ODD*/
 227:C:/Workspaces/DAVE4/RGB_led/Libraries/XMCLib/inc\xmc_uart.h **** } XMC_UART_CH_CONFIG_t;
 228:C:/Workspaces/DAVE4/RGB_led/Libraries/XMCLib/inc\xmc_uart.h **** 
 229:C:/Workspaces/DAVE4/RGB_led/Libraries/XMCLib/inc\xmc_uart.h **** /**************************************************************************************************
 230:C:/Workspaces/DAVE4/RGB_led/Libraries/XMCLib/inc\xmc_uart.h ****  * API PROTOTYPES
 231:C:/Workspaces/DAVE4/RGB_led/Libraries/XMCLib/inc\xmc_uart.h ****  **************************************************************************************************
 232:C:/Workspaces/DAVE4/RGB_led/Libraries/XMCLib/inc\xmc_uart.h **** 
 233:C:/Workspaces/DAVE4/RGB_led/Libraries/XMCLib/inc\xmc_uart.h **** #ifdef __cplusplus
 234:C:/Workspaces/DAVE4/RGB_led/Libraries/XMCLib/inc\xmc_uart.h **** extern "C" {
 235:C:/Workspaces/DAVE4/RGB_led/Libraries/XMCLib/inc\xmc_uart.h **** #endif
 236:C:/Workspaces/DAVE4/RGB_led/Libraries/XMCLib/inc\xmc_uart.h **** 
 237:C:/Workspaces/DAVE4/RGB_led/Libraries/XMCLib/inc\xmc_uart.h **** /**
 238:C:/Workspaces/DAVE4/RGB_led/Libraries/XMCLib/inc\xmc_uart.h ****  * @param channel Constant pointer to USIC channel handle of type @ref XMC_USIC_CH_t \n
 239:C:/Workspaces/DAVE4/RGB_led/Libraries/XMCLib/inc\xmc_uart.h ****  * 				  \b Range: @ref XMC_UART0_CH0, XMC_UART0_CH1,XMC_UART1_CH0, XMC_UART1_CH1,XMC_UART2_CH0, XM
 240:C:/Workspaces/DAVE4/RGB_led/Libraries/XMCLib/inc\xmc_uart.h ****  * @param config Constant pointer to UART configuration structure of type @ref XMC_UART_CH_CONFIG_t
 241:C:/Workspaces/DAVE4/RGB_led/Libraries/XMCLib/inc\xmc_uart.h ****  * @return XMC_UART_CH_STATUS_t Status of initializing the USIC channel for UART protocol.\n
 242:C:/Workspaces/DAVE4/RGB_led/Libraries/XMCLib/inc\xmc_uart.h ****  *          \b Range: @ref XMC_UART_CH_STATUS_OK if initialization is successful.\n
 243:C:/Workspaces/DAVE4/RGB_led/Libraries/XMCLib/inc\xmc_uart.h ****  *                    @ref XMC_UART_CH_STATUS_ERROR if configuration of baudrate failed.
 244:C:/Workspaces/DAVE4/RGB_led/Libraries/XMCLib/inc\xmc_uart.h ****  *
 245:C:/Workspaces/DAVE4/RGB_led/Libraries/XMCLib/inc\xmc_uart.h ****  * \par<b>Description</b><br>
 246:C:/Workspaces/DAVE4/RGB_led/Libraries/XMCLib/inc\xmc_uart.h ****  * Initializes the USIC channel for UART protocol.\n\n
 247:C:/Workspaces/DAVE4/RGB_led/Libraries/XMCLib/inc\xmc_uart.h ****  * During the initialization, USIC channel is enabled, baudrate is configured with the defined over
 248:C:/Workspaces/DAVE4/RGB_led/Libraries/XMCLib/inc\xmc_uart.h ****  * in the intialization structure. If the oversampling value is set to 0 in the structure, the defa
 249:C:/Workspaces/DAVE4/RGB_led/Libraries/XMCLib/inc\xmc_uart.h ****  * is considered. Sampling point for each symbol is configured at the half of sampling period. Symb
 250:C:/Workspaces/DAVE4/RGB_led/Libraries/XMCLib/inc\xmc_uart.h ****  * majority decision among 3 samples. 
 251:C:/Workspaces/DAVE4/RGB_led/Libraries/XMCLib/inc\xmc_uart.h ****  * Word length is configured with the number of data bits. If the value of \a frame_length is 0, th
 252:C:/Workspaces/DAVE4/RGB_led/Libraries/XMCLib/inc\xmc_uart.h ****  * is set to the same value as word length. If \a frame_length is greater than 0, it is set as the 
 253:C:/Workspaces/DAVE4/RGB_led/Libraries/XMCLib/inc\xmc_uart.h ****  * Parity mode is set to the value configured for \a parity_mode.
 254:C:/Workspaces/DAVE4/RGB_led/Libraries/XMCLib/inc\xmc_uart.h ****  * The USIC channel should be set to UART mode by calling the XMC_UART_CH_Start() API after the ini
 255:C:/Workspaces/DAVE4/RGB_led/Libraries/XMCLib/inc\xmc_uart.h ****  *
 256:C:/Workspaces/DAVE4/RGB_led/Libraries/XMCLib/inc\xmc_uart.h ****  * \par<b>Related APIs:</b><BR>
 257:C:/Workspaces/DAVE4/RGB_led/Libraries/XMCLib/inc\xmc_uart.h ****  * XMC_UART_CH_Start(), XMC_UART_CH_Stop(), XMC_UART_CH_Transmit()\n\n\n
 258:C:/Workspaces/DAVE4/RGB_led/Libraries/XMCLib/inc\xmc_uart.h ****  */
 259:C:/Workspaces/DAVE4/RGB_led/Libraries/XMCLib/inc\xmc_uart.h **** void XMC_UART_CH_Init(XMC_USIC_CH_t *const channel, const XMC_UART_CH_CONFIG_t *const config);
 260:C:/Workspaces/DAVE4/RGB_led/Libraries/XMCLib/inc\xmc_uart.h **** 
 261:C:/Workspaces/DAVE4/RGB_led/Libraries/XMCLib/inc\xmc_uart.h **** /**
 262:C:/Workspaces/DAVE4/RGB_led/Libraries/XMCLib/inc\xmc_uart.h ****  * @param channel Constant pointer to USIC channel handle of type @ref XMC_USIC_CH_t \n
 263:C:/Workspaces/DAVE4/RGB_led/Libraries/XMCLib/inc\xmc_uart.h ****  * 				  \b Range: @ref XMC_UART0_CH0, @ref XMC_UART0_CH1,@ref XMC_UART1_CH0,@ref XMC_UART1_CH1,@re
 264:C:/Workspaces/DAVE4/RGB_led/Libraries/XMCLib/inc\xmc_uart.h ****  * @return None
 265:C:/Workspaces/DAVE4/RGB_led/Libraries/XMCLib/inc\xmc_uart.h ****  *
 266:C:/Workspaces/DAVE4/RGB_led/Libraries/XMCLib/inc\xmc_uart.h ****  * \par<b>Description</b><br>
 267:C:/Workspaces/DAVE4/RGB_led/Libraries/XMCLib/inc\xmc_uart.h ****  * Sets the USIC channel operation mode to UART mode.\n\n
 268:C:/Workspaces/DAVE4/RGB_led/Libraries/XMCLib/inc\xmc_uart.h ****  * CCR register bitfield \a Mode is set to 2(UART mode). This API should be called after configurin
 269:C:/Workspaces/DAVE4/RGB_led/Libraries/XMCLib/inc\xmc_uart.h ****  * the USIC channel. Transmission and reception can happen only when the UART mode is set. 
 270:C:/Workspaces/DAVE4/RGB_led/Libraries/XMCLib/inc\xmc_uart.h ****  * This is an inline function.
 271:C:/Workspaces/DAVE4/RGB_led/Libraries/XMCLib/inc\xmc_uart.h ****  *
 272:C:/Workspaces/DAVE4/RGB_led/Libraries/XMCLib/inc\xmc_uart.h ****  * \par<b>Related APIs:</b><BR>
 273:C:/Workspaces/DAVE4/RGB_led/Libraries/XMCLib/inc\xmc_uart.h ****  * XMC_UART_CH_Stop(), XMC_UART_CH_Transmit()\n\n\n
 274:C:/Workspaces/DAVE4/RGB_led/Libraries/XMCLib/inc\xmc_uart.h ****  */
 275:C:/Workspaces/DAVE4/RGB_led/Libraries/XMCLib/inc\xmc_uart.h **** __STATIC_INLINE void XMC_UART_CH_Start(XMC_USIC_CH_t *const channel)
 276:C:/Workspaces/DAVE4/RGB_led/Libraries/XMCLib/inc\xmc_uart.h **** {
 272              	 .loc 3 276 0
 273              	 .cfi_startproc
 274 0000 80B5     	 push {r7,lr}
 275              	.LCFI9:
 276              	 .cfi_def_cfa_offset 8
 277              	 .cfi_offset 7,-8
 278              	 .cfi_offset 14,-4
 279 0002 82B0     	 sub sp,sp,#8
 280              	.LCFI10:
 281              	 .cfi_def_cfa_offset 16
 282 0004 00AF     	 add r7,sp,#0
 283              	.LCFI11:
 284              	 .cfi_def_cfa_register 7
 285 0006 7860     	 str r0,[r7,#4]
 277:C:/Workspaces/DAVE4/RGB_led/Libraries/XMCLib/inc\xmc_uart.h ****   channel->CCR = (uint32_t)(((channel->CCR) & (~USIC_CH_CCR_MODE_Msk)) | (uint32_t)XMC_USIC_CH_OPER
 286              	 .loc 3 277 0
 287 0008 7B68     	 ldr r3,[r7,#4]
 288 000a 1B6C     	 ldr r3,[r3,#64]
 289 000c 0F22     	 mov r2,#15
 290 000e 9343     	 bic r3,r2
 291 0010 0222     	 mov r2,#2
 292 0012 1A43     	 orr r2,r3
 293 0014 7B68     	 ldr r3,[r7,#4]
 294 0016 1A64     	 str r2,[r3,#64]
 278:C:/Workspaces/DAVE4/RGB_led/Libraries/XMCLib/inc\xmc_uart.h **** }
 295              	 .loc 3 278 0
 296 0018 BD46     	 mov sp,r7
 297 001a 02B0     	 add sp,sp,#8
 298              	 
 299 001c 80BD     	 pop {r7,pc}
 300              	 .cfi_endproc
 301              	.LFE118:
 303              	 .global UART_0_channel_config
 304 001e C046     	 .section .rodata.UART_0_channel_config,"a",%progbits
 305              	 .align 2
 308              	UART_0_channel_config:
 309 0000 004B0000 	 .word 19200
 310 0004 08       	 .byte 8
 311 0005 08       	 .byte 8
 312 0006 01       	 .byte 1
 313 0007 10       	 .byte 16
 314 0008 0000     	 .short 0
 315 000a 0000     	 .space 2
 316              	 .global UART_0_tx_pin_config
 317              	 .section .rodata.UART_0_tx_pin_config,"a",%progbits
 318              	 .align 2
 321              	UART_0_tx_pin_config:
 322 0000 B0       	 .byte -80
 323 0001 000000   	 .space 3
 324 0004 01000000 	 .word 1
 325              	 .global UART_0_tx_pin
 326              	 .section .rodata.UART_0_tx_pin,"a",%progbits
 327              	 .align 2
 330              	UART_0_tx_pin:
 331 0000 00020440 	 .word 1074004480
 332 0004 01       	 .byte 1
 333 0005 000000   	 .space 3
 334 0008 00000000 	 .word UART_0_tx_pin_config
 335              	 .global UART_0_config
 336              	 .section .rodata.UART_0_config,"a",%progbits
 337              	 .align 2
 340              	UART_0_config:
 341 0000 00000000 	 .word UART_0_channel_config
 342 0004 00000000 	 .word UART_0_init
 343 0008 00000000 	 .word 0
 344 000c 00000000 	 .word 0
 345 0010 00000000 	 .word 0
 346 0014 00000000 	 .word 0
 347 0018 00000000 	 .word 0
 348 001c 00000000 	 .word 0
 349 0020 00000000 	 .word 0
 350 0024 00000000 	 .word UART_0_tx_pin
 351 0028 00       	 .byte 0
 352 0029 00       	 .byte 0
 353 002a 00       	 .byte 0
 354 002b 04       	 .byte 4
 355 002c 04       	 .byte 4
 356 002d 02       	 .byte 2
 357 002e 0000     	 .space 2
 358              	 .global UART_0_runtime
 359              	 .section .bss.UART_0_runtime,"aw",%nobits
 360              	 .align 2
 363              	UART_0_runtime:
 364 0000 00000000 	 .space 28
 364      00000000 
 364      00000000 
 364      00000000 
 364      00000000 
 365              	 .global UART_0
 366              	 .section .data.UART_0,"aw",%progbits
 367              	 .align 2
 370              	UART_0:
 371 0000 00000048 	 .word 1207959552
 372 0004 00000000 	 .word UART_0_config
 373 0008 00000000 	 .word UART_0_runtime
 374              	 .global UART_0_rx_pin_config
 375              	 .section .rodata.UART_0_rx_pin_config,"a",%progbits
 376              	 .align 2
 379              	UART_0_rx_pin_config:
 380 0000 00       	 .byte 0
 381 0001 00       	 .byte 0
 382 0002 0000     	 .space 2
 383 0004 01000000 	 .word 1
 384              	 .section .text.UART_0_init,"ax",%progbits
 385              	 .align 2
 386              	 .global UART_0_init
 387              	 .code 16
 388              	 .thumb_func
 390              	UART_0_init:
 391              	.LFB154:
 392              	 .file 4 "../Dave/Generated/UART/uart_conf.c"
   1:../Dave/Generated/UART/uart_conf.c **** /**************************************************************************************************
   2:../Dave/Generated/UART/uart_conf.c **** * DAVE APP Name : UART       APP Version: 4.1.8
   3:../Dave/Generated/UART/uart_conf.c **** *
   4:../Dave/Generated/UART/uart_conf.c **** * NOTE:
   5:../Dave/Generated/UART/uart_conf.c **** * This file is generated by DAVE. Any manual modification done to this file will be lost when the c
   6:../Dave/Generated/UART/uart_conf.c **** ***************************************************************************************************
   7:../Dave/Generated/UART/uart_conf.c **** 
   8:../Dave/Generated/UART/uart_conf.c **** /**
   9:../Dave/Generated/UART/uart_conf.c ****  * @cond
  10:../Dave/Generated/UART/uart_conf.c ****  **************************************************************************************************
  11:../Dave/Generated/UART/uart_conf.c ****  *
  12:../Dave/Generated/UART/uart_conf.c ****  * Copyright (c) 2015-2016, Infineon Technologies AG
  13:../Dave/Generated/UART/uart_conf.c ****  * All rights reserved.
  14:../Dave/Generated/UART/uart_conf.c ****  *
  15:../Dave/Generated/UART/uart_conf.c ****  * Redistribution and use in source and binary forms, with or without modification,are permitted pr
  16:../Dave/Generated/UART/uart_conf.c ****  * following conditions are met:
  17:../Dave/Generated/UART/uart_conf.c ****  *
  18:../Dave/Generated/UART/uart_conf.c ****  *   Redistributions of source code must retain the above copyright notice, this list of conditions
  19:../Dave/Generated/UART/uart_conf.c ****  *   disclaimer.
  20:../Dave/Generated/UART/uart_conf.c ****  *
  21:../Dave/Generated/UART/uart_conf.c ****  *   Redistributions in binary form must reproduce the above copyright notice, this list of conditi
  22:../Dave/Generated/UART/uart_conf.c ****  *   following disclaimer in the documentation and/or other materials provided with the distributio
  23:../Dave/Generated/UART/uart_conf.c ****  *
  24:../Dave/Generated/UART/uart_conf.c ****  *   Neither the name of the copyright holders nor the names of its contributors may be used to end
  25:../Dave/Generated/UART/uart_conf.c ****  *   products derived from this software without specific prior written permission.
  26:../Dave/Generated/UART/uart_conf.c ****  *
  27:../Dave/Generated/UART/uart_conf.c ****  * THIS SOFTWARE IS PROVIDED BY THE COPYRIGHT HOLDERS AND CONTRIBUTORS "AS IS" AND ANY EXPRESS OR I
  28:../Dave/Generated/UART/uart_conf.c ****  * INCLUDING, BUT NOT LIMITED TO, THE IMPLIED WARRANTIES OF MERCHANTABILITY AND FITNESS FOR A PARTI
  29:../Dave/Generated/UART/uart_conf.c ****  * DISCLAIMED. IN NO EVENT SHALL THE COPYRIGHT HOLDER OR CONTRIBUTORS BE LIABLE  FOR ANY DIRECT, IN
  30:../Dave/Generated/UART/uart_conf.c ****  * SPECIAL, EXEMPLARY, OR CONSEQUENTIAL DAMAGES (INCLUDING, BUT NOT LIMITED TO, PROCUREMENT OF SUBS
  31:../Dave/Generated/UART/uart_conf.c ****  * SERVICES; LOSS OF USE, DATA, OR PROFITS; OR BUSINESS INTERRUPTION) HOWEVER CAUSED AND ON ANY THE
  32:../Dave/Generated/UART/uart_conf.c ****  * WHETHER IN CONTRACT, STRICT LIABILITY,OR TORT (INCLUDING NEGLIGENCE OR OTHERWISE) ARISING IN ANY
  33:../Dave/Generated/UART/uart_conf.c ****  * USE OF THIS SOFTWARE, EVEN IF ADVISED OF THE POSSIBILITY OF SUCH DAMAGE.
  34:../Dave/Generated/UART/uart_conf.c ****  *
  35:../Dave/Generated/UART/uart_conf.c ****  * To improve the quality of the software, users are encouraged to share modifications, enhancement
  36:../Dave/Generated/UART/uart_conf.c ****  * with Infineon Technologies AG (dave@infineon.com).
  37:../Dave/Generated/UART/uart_conf.c ****  **************************************************************************************************
  38:../Dave/Generated/UART/uart_conf.c ****  *
  39:../Dave/Generated/UART/uart_conf.c ****  * Change History
  40:../Dave/Generated/UART/uart_conf.c ****  * --------------
  41:../Dave/Generated/UART/uart_conf.c ****  *
  42:../Dave/Generated/UART/uart_conf.c ****  * 2015-02-16:
  43:../Dave/Generated/UART/uart_conf.c ****  *     - Initial version for DAVEv4.
  44:../Dave/Generated/UART/uart_conf.c ****  *
  45:../Dave/Generated/UART/uart_conf.c ****  * 2015-06-20:
  46:../Dave/Generated/UART/uart_conf.c ****  *     - Service request value moved from runtime structure to config structure.
  47:../Dave/Generated/UART/uart_conf.c ****  *
  48:../Dave/Generated/UART/uart_conf.c ****  * 2015-07-06:
  49:../Dave/Generated/UART/uart_conf.c ****  *     - Structure name changed from UART_DYNAMIC_t to UART_RUNTIME_t
  50:../Dave/Generated/UART/uart_conf.c ****  *
  51:../Dave/Generated/UART/uart_conf.c ****  * 2015-07-30:
  52:../Dave/Generated/UART/uart_conf.c ****  *     - Added DMA and Direct mode configuration
  53:../Dave/Generated/UART/uart_conf.c ****  * @endcond
  54:../Dave/Generated/UART/uart_conf.c ****  *
  55:../Dave/Generated/UART/uart_conf.c ****  */
  56:../Dave/Generated/UART/uart_conf.c **** /**************************************************************************************************
  57:../Dave/Generated/UART/uart_conf.c ****  * HEADER FILES
  58:../Dave/Generated/UART/uart_conf.c ****  **************************************************************************************************
  59:../Dave/Generated/UART/uart_conf.c **** #include "uart.h"
  60:../Dave/Generated/UART/uart_conf.c **** 
  61:../Dave/Generated/UART/uart_conf.c **** /**************************************************************************************************
  62:../Dave/Generated/UART/uart_conf.c ****  * EXTERN DECLARATIONS
  63:../Dave/Generated/UART/uart_conf.c ****  **************************************************************************************************
  64:../Dave/Generated/UART/uart_conf.c **** 
  65:../Dave/Generated/UART/uart_conf.c **** /*
  66:../Dave/Generated/UART/uart_conf.c ****  * Function implements the data transmission. It is called from the transmit interrupt service hand
  67:../Dave/Generated/UART/uart_conf.c ****  * Function pushes data to the output block and releases control. It is called again when the previ
  68:../Dave/Generated/UART/uart_conf.c ****  * transmitted. When transmit FIFO is used, the function sets the trigger limit based on the size o
  69:../Dave/Generated/UART/uart_conf.c ****  * transmitted.
  70:../Dave/Generated/UART/uart_conf.c ****  */
  71:../Dave/Generated/UART/uart_conf.c **** extern void UART_lTransmitHandler(const UART_t * const handle);
  72:../Dave/Generated/UART/uart_conf.c **** /*
  73:../Dave/Generated/UART/uart_conf.c ****  * Function implements the data reception. It is called from the receive interrupt service handler.
  74:../Dave/Generated/UART/uart_conf.c ****  * Function reads data from the receive block and updates the user's buffer. It is called again whe
  75:../Dave/Generated/UART/uart_conf.c ****  * received again. When receive FIFO is used, the function sets the trigger limit based on the size
  76:../Dave/Generated/UART/uart_conf.c ****  * received.
  77:../Dave/Generated/UART/uart_conf.c ****  */
  78:../Dave/Generated/UART/uart_conf.c **** extern void UART_lReceiveHandler(const UART_t * const handle);
  79:../Dave/Generated/UART/uart_conf.c **** /*
  80:../Dave/Generated/UART/uart_conf.c ****  * Function monitors the configured protocol interrupt flags. It is called from the protocol interr
  81:../Dave/Generated/UART/uart_conf.c ****  * service handler.
  82:../Dave/Generated/UART/uart_conf.c ****  * Function reads the status of the USIC channel and checks for configured flags in the APP UI.
  83:../Dave/Generated/UART/uart_conf.c ****  * If any callback function is provided in the APP UI, it will be called when the selected flag is 
  84:../Dave/Generated/UART/uart_conf.c ****  */
  85:../Dave/Generated/UART/uart_conf.c **** extern void UART_lProtocolHandler(const UART_t * const handle);
  86:../Dave/Generated/UART/uart_conf.c **** 
  87:../Dave/Generated/UART/uart_conf.c **** 
  88:../Dave/Generated/UART/uart_conf.c **** /**************************************************************************************************
  89:../Dave/Generated/UART/uart_conf.c ****  * DATA STRUCTURES
  90:../Dave/Generated/UART/uart_conf.c ****  **************************************************************************************************
  91:../Dave/Generated/UART/uart_conf.c **** UART_STATUS_t UART_0_init(void);
  92:../Dave/Generated/UART/uart_conf.c **** 
  93:../Dave/Generated/UART/uart_conf.c **** /*USIC channel configuration*/
  94:../Dave/Generated/UART/uart_conf.c **** const XMC_UART_CH_CONFIG_t UART_0_channel_config =
  95:../Dave/Generated/UART/uart_conf.c **** {
  96:../Dave/Generated/UART/uart_conf.c ****   .baudrate      = 19200U,
  97:../Dave/Generated/UART/uart_conf.c ****   .data_bits     = 8U,
  98:../Dave/Generated/UART/uart_conf.c ****   .frame_length  = 8U,
  99:../Dave/Generated/UART/uart_conf.c ****   .stop_bits     = 1U,
 100:../Dave/Generated/UART/uart_conf.c ****   .oversampling  = 16U,
 101:../Dave/Generated/UART/uart_conf.c ****   .parity_mode   = XMC_USIC_CH_PARITY_MODE_NONE
 102:../Dave/Generated/UART/uart_conf.c **** };
 103:../Dave/Generated/UART/uart_conf.c **** /*Transmit pin configuration*/
 104:../Dave/Generated/UART/uart_conf.c **** const XMC_GPIO_CONFIG_t UART_0_tx_pin_config   = 
 105:../Dave/Generated/UART/uart_conf.c **** { 
 106:../Dave/Generated/UART/uart_conf.c ****   .mode             = XMC_GPIO_MODE_OUTPUT_PUSH_PULL_ALT6, 
 107:../Dave/Generated/UART/uart_conf.c ****   .output_level     = XMC_GPIO_OUTPUT_LEVEL_HIGH
 108:../Dave/Generated/UART/uart_conf.c **** };
 109:../Dave/Generated/UART/uart_conf.c **** 
 110:../Dave/Generated/UART/uart_conf.c **** /*Transmit pin configuration used for initializing*/
 111:../Dave/Generated/UART/uart_conf.c **** const UART_TX_CONFIG_t UART_0_tx_pin = 
 112:../Dave/Generated/UART/uart_conf.c **** {
 113:../Dave/Generated/UART/uart_conf.c ****   .port = (XMC_GPIO_PORT_t *)PORT2_BASE,
 114:../Dave/Generated/UART/uart_conf.c ****   .config = &UART_0_tx_pin_config,
 115:../Dave/Generated/UART/uart_conf.c ****   .pin = 1U
 116:../Dave/Generated/UART/uart_conf.c **** };
 117:../Dave/Generated/UART/uart_conf.c **** 
 118:../Dave/Generated/UART/uart_conf.c **** /*UART APP configuration structure*/
 119:../Dave/Generated/UART/uart_conf.c **** const UART_CONFIG_t UART_0_config = 
 120:../Dave/Generated/UART/uart_conf.c **** {
 121:../Dave/Generated/UART/uart_conf.c ****   .channel_config   = &UART_0_channel_config,
 122:../Dave/Generated/UART/uart_conf.c **** 
 123:../Dave/Generated/UART/uart_conf.c **** 
 124:../Dave/Generated/UART/uart_conf.c ****   .fptr_uart_config = UART_0_init,
 125:../Dave/Generated/UART/uart_conf.c ****   .tx_cbhandler = NULL,
 126:../Dave/Generated/UART/uart_conf.c ****   .rx_cbhandler = NULL,  
 127:../Dave/Generated/UART/uart_conf.c ****   .sync_error_cbhandler = NULL,  
 128:../Dave/Generated/UART/uart_conf.c ****   .rx_noise_error_cbhandler = NULL,  
 129:../Dave/Generated/UART/uart_conf.c ****   .format_error_bit0_cbhandler = NULL,  
 130:../Dave/Generated/UART/uart_conf.c ****   .format_error_bit1_cbhandler = NULL,  
 131:../Dave/Generated/UART/uart_conf.c ****   .collision_error_cbhandler = NULL,
 132:../Dave/Generated/UART/uart_conf.c ****   .tx_pin_config    = &UART_0_tx_pin,
 133:../Dave/Generated/UART/uart_conf.c ****   .mode             = UART_MODE_FULLDUPLEX,
 134:../Dave/Generated/UART/uart_conf.c ****   .transmit_mode = UART_TRANSFER_MODE_INTERRUPT,
 135:../Dave/Generated/UART/uart_conf.c ****   .receive_mode = UART_TRANSFER_MODE_INTERRUPT,
 136:../Dave/Generated/UART/uart_conf.c ****   .tx_fifo_size     = XMC_USIC_CH_FIFO_SIZE_16WORDS,
 137:../Dave/Generated/UART/uart_conf.c ****   .rx_fifo_size     = XMC_USIC_CH_FIFO_SIZE_16WORDS,
 138:../Dave/Generated/UART/uart_conf.c ****   .tx_sr   = 0x2U,
 139:../Dave/Generated/UART/uart_conf.c **** };
 140:../Dave/Generated/UART/uart_conf.c **** 
 141:../Dave/Generated/UART/uart_conf.c **** /*Runtime handler*/
 142:../Dave/Generated/UART/uart_conf.c **** UART_RUNTIME_t UART_0_runtime = 
 143:../Dave/Generated/UART/uart_conf.c **** {
 144:../Dave/Generated/UART/uart_conf.c ****   .tx_busy = false,  
 145:../Dave/Generated/UART/uart_conf.c ****   .rx_busy = false,
 146:../Dave/Generated/UART/uart_conf.c **** };
 147:../Dave/Generated/UART/uart_conf.c **** 
 148:../Dave/Generated/UART/uart_conf.c **** /*APP handle structure*/
 149:../Dave/Generated/UART/uart_conf.c **** UART_t UART_0 = 
 150:../Dave/Generated/UART/uart_conf.c **** {
 151:../Dave/Generated/UART/uart_conf.c ****   .channel = XMC_UART0_CH0,
 152:../Dave/Generated/UART/uart_conf.c ****   .config  = &UART_0_config,
 153:../Dave/Generated/UART/uart_conf.c ****   .runtime = &UART_0_runtime
 154:../Dave/Generated/UART/uart_conf.c **** };
 155:../Dave/Generated/UART/uart_conf.c **** 
 156:../Dave/Generated/UART/uart_conf.c **** /*Receive pin configuration*/
 157:../Dave/Generated/UART/uart_conf.c **** const XMC_GPIO_CONFIG_t UART_0_rx_pin_config   = {
 158:../Dave/Generated/UART/uart_conf.c ****   .mode             = XMC_GPIO_MODE_INPUT_TRISTATE,
 159:../Dave/Generated/UART/uart_conf.c ****   .output_level     = XMC_GPIO_OUTPUT_LEVEL_HIGH,
 160:../Dave/Generated/UART/uart_conf.c ****   .input_hysteresis = XMC_GPIO_INPUT_HYSTERESIS_STANDARD
 161:../Dave/Generated/UART/uart_conf.c **** };
 162:../Dave/Generated/UART/uart_conf.c **** /**************************************************************************************************
 163:../Dave/Generated/UART/uart_conf.c ****  * API IMPLEMENTATION
 164:../Dave/Generated/UART/uart_conf.c ****  **************************************************************************************************
 165:../Dave/Generated/UART/uart_conf.c **** /*Channel initialization function*/
 166:../Dave/Generated/UART/uart_conf.c **** UART_STATUS_t UART_0_init()
 167:../Dave/Generated/UART/uart_conf.c **** {
 393              	 .loc 4 167 0
 394              	 .cfi_startproc
 395 0000 80B5     	 push {r7,lr}
 396              	.LCFI12:
 397              	 .cfi_def_cfa_offset 8
 398              	 .cfi_offset 7,-8
 399              	 .cfi_offset 14,-4
 400 0002 82B0     	 sub sp,sp,#8
 401              	.LCFI13:
 402              	 .cfi_def_cfa_offset 16
 403 0004 00AF     	 add r7,sp,#0
 404              	.LCFI14:
 405              	 .cfi_def_cfa_register 7
 168:../Dave/Generated/UART/uart_conf.c ****   UART_STATUS_t status = UART_STATUS_SUCCESS;
 406              	 .loc 4 168 0
 407 0006 FB1D     	 add r3,r7,#7
 408 0008 0022     	 mov r2,#0
 409 000a 1A70     	 strb r2,[r3]
 169:../Dave/Generated/UART/uart_conf.c ****   /*Configure Receive pin*/
 170:../Dave/Generated/UART/uart_conf.c ****   XMC_GPIO_Init((XMC_GPIO_PORT_t *)PORT2_BASE, 2U, &UART_0_rx_pin_config);
 410              	 .loc 4 170 0
 411 000c 374A     	 ldr r2,.L13
 412 000e 384B     	 ldr r3,.L13+4
 413 0010 101C     	 mov r0,r2
 414 0012 0221     	 mov r1,#2
 415 0014 1A1C     	 mov r2,r3
 416 0016 FFF7FEFF 	 bl XMC_GPIO_Init
 171:../Dave/Generated/UART/uart_conf.c ****   /* Initialize USIC channel in UART mode*/
 172:../Dave/Generated/UART/uart_conf.c ****   XMC_UART_CH_Init(XMC_UART0_CH0, &UART_0_channel_config);
 417              	 .loc 4 172 0
 418 001a 9023     	 mov r3,#144
 419 001c DA05     	 lsl r2,r3,#23
 420 001e 354B     	 ldr r3,.L13+8
 421 0020 101C     	 mov r0,r2
 422 0022 191C     	 mov r1,r3
 423 0024 FFF7FEFF 	 bl XMC_UART_CH_Init
 173:../Dave/Generated/UART/uart_conf.c ****   /*Set input source path*/
 174:../Dave/Generated/UART/uart_conf.c ****   XMC_USIC_CH_SetInputSource(XMC_UART0_CH0, XMC_USIC_CH_INPUT_DX0, 6U);
 424              	 .loc 4 174 0
 425 0028 9023     	 mov r3,#144
 426 002a DB05     	 lsl r3,r3,#23
 427 002c 181C     	 mov r0,r3
 428 002e 0021     	 mov r1,#0
 429 0030 0622     	 mov r2,#6
 430 0032 FFF7FEFF 	 bl XMC_USIC_CH_SetInputSource
 175:../Dave/Generated/UART/uart_conf.c ****   XMC_USIC_CH_SetInputSource(XMC_UART0_CH0, XMC_USIC_CH_INPUT_DX3, 0U);
 431              	 .loc 4 175 0
 432 0036 9023     	 mov r3,#144
 433 0038 DB05     	 lsl r3,r3,#23
 434 003a 181C     	 mov r0,r3
 435 003c 0321     	 mov r1,#3
 436 003e 0022     	 mov r2,#0
 437 0040 FFF7FEFF 	 bl XMC_USIC_CH_SetInputSource
 176:../Dave/Generated/UART/uart_conf.c ****   XMC_USIC_CH_SetInputSource(XMC_UART0_CH0, XMC_USIC_CH_INPUT_DX5, 0U);
 438              	 .loc 4 176 0
 439 0044 9023     	 mov r3,#144
 440 0046 DB05     	 lsl r3,r3,#23
 441 0048 181C     	 mov r0,r3
 442 004a 0521     	 mov r1,#5
 443 004c 0022     	 mov r2,#0
 444 004e FFF7FEFF 	 bl XMC_USIC_CH_SetInputSource
 177:../Dave/Generated/UART/uart_conf.c ****   /*Configure transmit FIFO*/
 178:../Dave/Generated/UART/uart_conf.c ****   XMC_USIC_CH_TXFIFO_Configure(XMC_UART0_CH0,
 445              	 .loc 4 178 0
 446 0052 9023     	 mov r3,#144
 447 0054 DB05     	 lsl r3,r3,#23
 448 0056 181C     	 mov r0,r3
 449 0058 1021     	 mov r1,#16
 450 005a 0422     	 mov r2,#4
 451 005c 0123     	 mov r3,#1
 452 005e FFF7FEFF 	 bl XMC_USIC_CH_TXFIFO_Configure
 179:../Dave/Generated/UART/uart_conf.c ****         16U,
 180:../Dave/Generated/UART/uart_conf.c ****         XMC_USIC_CH_FIFO_SIZE_16WORDS,
 181:../Dave/Generated/UART/uart_conf.c ****         1U);
 182:../Dave/Generated/UART/uart_conf.c ****   /*Configure receive FIFO*/
 183:../Dave/Generated/UART/uart_conf.c ****   XMC_USIC_CH_RXFIFO_Configure(XMC_UART0_CH0,
 453              	 .loc 4 183 0
 454 0062 9023     	 mov r3,#144
 455 0064 DB05     	 lsl r3,r3,#23
 456 0066 181C     	 mov r0,r3
 457 0068 0021     	 mov r1,#0
 458 006a 0422     	 mov r2,#4
 459 006c 0023     	 mov r3,#0
 460 006e FFF7FEFF 	 bl XMC_USIC_CH_RXFIFO_Configure
 184:../Dave/Generated/UART/uart_conf.c ****         0U,
 185:../Dave/Generated/UART/uart_conf.c ****         XMC_USIC_CH_FIFO_SIZE_16WORDS,
 186:../Dave/Generated/UART/uart_conf.c ****         0U);
 187:../Dave/Generated/UART/uart_conf.c ****   /* Start UART */
 188:../Dave/Generated/UART/uart_conf.c ****   XMC_UART_CH_Start(XMC_UART0_CH0);
 461              	 .loc 4 188 0
 462 0072 9023     	 mov r3,#144
 463 0074 DB05     	 lsl r3,r3,#23
 464 0076 181C     	 mov r0,r3
 465 0078 FFF7FEFF 	 bl XMC_UART_CH_Start
 189:../Dave/Generated/UART/uart_conf.c **** 
 190:../Dave/Generated/UART/uart_conf.c ****   /* Initialize UART TX pin */
 191:../Dave/Generated/UART/uart_conf.c ****   XMC_GPIO_Init((XMC_GPIO_PORT_t *)PORT2_BASE, 1U, &UART_0_tx_pin_config);
 466              	 .loc 4 191 0
 467 007c 1B4A     	 ldr r2,.L13
 468 007e 1E4B     	 ldr r3,.L13+12
 469 0080 101C     	 mov r0,r2
 470 0082 0121     	 mov r1,#1
 471 0084 1A1C     	 mov r2,r3
 472 0086 FFF7FEFF 	 bl XMC_GPIO_Init
 192:../Dave/Generated/UART/uart_conf.c **** 
 193:../Dave/Generated/UART/uart_conf.c ****   /*Set service request for UART protocol events*/
 194:../Dave/Generated/UART/uart_conf.c ****   XMC_USIC_CH_SetInterruptNodePointer(XMC_UART0_CH0, XMC_USIC_CH_INTERRUPT_NODE_POINTER_PROTOCOL,
 473              	 .loc 4 194 0
 474 008a 9023     	 mov r3,#144
 475 008c DB05     	 lsl r3,r3,#23
 476 008e 181C     	 mov r0,r3
 477 0090 1021     	 mov r1,#16
 478 0092 0022     	 mov r2,#0
 479 0094 FFF7FEFF 	 bl XMC_USIC_CH_SetInterruptNodePointer
 195:../Dave/Generated/UART/uart_conf.c ****      0U);
 196:../Dave/Generated/UART/uart_conf.c ****   /*Set service request for tx FIFO transmit interrupt*/
 197:../Dave/Generated/UART/uart_conf.c ****   XMC_USIC_CH_TXFIFO_SetInterruptNodePointer(XMC_UART0_CH0, XMC_USIC_CH_TXFIFO_INTERRUPT_NODE_POINT
 480              	 .loc 4 197 0
 481 0098 9023     	 mov r3,#144
 482 009a DB05     	 lsl r3,r3,#23
 483 009c 181C     	 mov r0,r3
 484 009e 1021     	 mov r1,#16
 485 00a0 0222     	 mov r2,#2
 486 00a2 FFF7FEFF 	 bl XMC_USIC_CH_TXFIFO_SetInterruptNodePointer
 198:../Dave/Generated/UART/uart_conf.c ****       2U);
 199:../Dave/Generated/UART/uart_conf.c ****   /*Set service request for rx FIFO receive interrupt*/
 200:../Dave/Generated/UART/uart_conf.c ****   XMC_USIC_CH_RXFIFO_SetInterruptNodePointer(XMC_UART0_CH0, XMC_USIC_CH_RXFIFO_INTERRUPT_NODE_POINT
 487              	 .loc 4 200 0
 488 00a6 9023     	 mov r3,#144
 489 00a8 DB05     	 lsl r3,r3,#23
 490 00aa 181C     	 mov r0,r3
 491 00ac 1021     	 mov r1,#16
 492 00ae 0122     	 mov r2,#1
 493 00b0 FFF7FEFF 	 bl XMC_USIC_CH_RXFIFO_SetInterruptNodePointer
 201:../Dave/Generated/UART/uart_conf.c ****        0x1U);
 202:../Dave/Generated/UART/uart_conf.c ****   XMC_USIC_CH_RXFIFO_SetInterruptNodePointer(XMC_UART0_CH0, XMC_USIC_CH_RXFIFO_INTERRUPT_NODE_POINT
 494              	 .loc 4 202 0
 495 00b4 9023     	 mov r3,#144
 496 00b6 DB05     	 lsl r3,r3,#23
 497 00b8 181C     	 mov r0,r3
 498 00ba 1321     	 mov r1,#19
 499 00bc 0122     	 mov r2,#1
 500 00be FFF7FEFF 	 bl XMC_USIC_CH_RXFIFO_SetInterruptNodePointer
 203:../Dave/Generated/UART/uart_conf.c ****        0x1U);
 204:../Dave/Generated/UART/uart_conf.c ****   /*Set priority and enable NVIC node for transmit interrupt*/
 205:../Dave/Generated/UART/uart_conf.c ****   NVIC_SetPriority((IRQn_Type)11, 3U);
 501              	 .loc 4 205 0
 502 00c2 0B20     	 mov r0,#11
 503 00c4 0321     	 mov r1,#3
 504 00c6 FFF7FEFF 	 bl NVIC_SetPriority
 206:../Dave/Generated/UART/uart_conf.c ****   NVIC_EnableIRQ((IRQn_Type)11);
 505              	 .loc 4 206 0
 506 00ca 0B20     	 mov r0,#11
 507 00cc FFF7FEFF 	 bl NVIC_EnableIRQ
 207:../Dave/Generated/UART/uart_conf.c ****   /*Set priority and enable NVIC node for receive interrupt*/
 208:../Dave/Generated/UART/uart_conf.c ****   NVIC_SetPriority((IRQn_Type)10, 3U);
 508              	 .loc 4 208 0
 509 00d0 0A20     	 mov r0,#10
 510 00d2 0321     	 mov r1,#3
 511 00d4 FFF7FEFF 	 bl NVIC_SetPriority
 209:../Dave/Generated/UART/uart_conf.c ****   NVIC_EnableIRQ((IRQn_Type)10);
 512              	 .loc 4 209 0
 513 00d8 0A20     	 mov r0,#10
 514 00da FFF7FEFF 	 bl NVIC_EnableIRQ
 210:../Dave/Generated/UART/uart_conf.c ****   return status;
 515              	 .loc 4 210 0
 516 00de FB1D     	 add r3,r7,#7
 517 00e0 1B78     	 ldrb r3,[r3]
 211:../Dave/Generated/UART/uart_conf.c **** }
 518              	 .loc 4 211 0
 519 00e2 181C     	 mov r0,r3
 520 00e4 BD46     	 mov sp,r7
 521 00e6 02B0     	 add sp,sp,#8
 522              	 
 523 00e8 80BD     	 pop {r7,pc}
 524              	.L14:
 525 00ea C046     	 .align 2
 526              	.L13:
 527 00ec 00020440 	 .word 1074004480
 528 00f0 00000000 	 .word UART_0_rx_pin_config
 529 00f4 00000000 	 .word UART_0_channel_config
 530 00f8 00000000 	 .word UART_0_tx_pin_config
 531              	 .cfi_endproc
 532              	.LFE154:
 534              	 .section .text.USIC0_2_IRQHandler,"ax",%progbits
 535              	 .align 2
 536              	 .global USIC0_2_IRQHandler
 537              	 .code 16
 538              	 .thumb_func
 540              	USIC0_2_IRQHandler:
 541              	.LFB155:
 212:../Dave/Generated/UART/uart_conf.c **** /*Interrupt handlers*/
 213:../Dave/Generated/UART/uart_conf.c **** /*Transmit ISR*/
 214:../Dave/Generated/UART/uart_conf.c **** void UART_0_TX_HANDLER()
 215:../Dave/Generated/UART/uart_conf.c **** {
 542              	 .loc 4 215 0
 543              	 .cfi_startproc
 544 0000 80B5     	 push {r7,lr}
 545              	.LCFI15:
 546              	 .cfi_def_cfa_offset 8
 547              	 .cfi_offset 7,-8
 548              	 .cfi_offset 14,-4
 549 0002 00AF     	 add r7,sp,#0
 550              	.LCFI16:
 551              	 .cfi_def_cfa_register 7
 216:../Dave/Generated/UART/uart_conf.c ****   UART_lTransmitHandler(&UART_0);
 552              	 .loc 4 216 0
 553 0004 024B     	 ldr r3,.L16
 554 0006 181C     	 mov r0,r3
 555 0008 FFF7FEFF 	 bl UART_lTransmitHandler
 217:../Dave/Generated/UART/uart_conf.c **** }
 556              	 .loc 4 217 0
 557 000c BD46     	 mov sp,r7
 558              	 
 559 000e 80BD     	 pop {r7,pc}
 560              	.L17:
 561              	 .align 2
 562              	.L16:
 563 0010 00000000 	 .word UART_0
 564              	 .cfi_endproc
 565              	.LFE155:
 567              	 .section .text.USIC0_1_IRQHandler,"ax",%progbits
 568              	 .align 2
 569              	 .global USIC0_1_IRQHandler
 570              	 .code 16
 571              	 .thumb_func
 573              	USIC0_1_IRQHandler:
 574              	.LFB156:
 218:../Dave/Generated/UART/uart_conf.c **** 
 219:../Dave/Generated/UART/uart_conf.c **** /*Receive ISR*/
 220:../Dave/Generated/UART/uart_conf.c **** void UART_0_RX_HANDLER()
 221:../Dave/Generated/UART/uart_conf.c **** {
 575              	 .loc 4 221 0
 576              	 .cfi_startproc
 577 0000 80B5     	 push {r7,lr}
 578              	.LCFI17:
 579              	 .cfi_def_cfa_offset 8
 580              	 .cfi_offset 7,-8
 581              	 .cfi_offset 14,-4
 582 0002 00AF     	 add r7,sp,#0
 583              	.LCFI18:
 584              	 .cfi_def_cfa_register 7
 222:../Dave/Generated/UART/uart_conf.c ****   UART_lReceiveHandler(&UART_0);
 585              	 .loc 4 222 0
 586 0004 024B     	 ldr r3,.L19
 587 0006 181C     	 mov r0,r3
 588 0008 FFF7FEFF 	 bl UART_lReceiveHandler
 223:../Dave/Generated/UART/uart_conf.c **** }
 589              	 .loc 4 223 0
 590 000c BD46     	 mov sp,r7
 591              	 
 592 000e 80BD     	 pop {r7,pc}
 593              	.L20:
 594              	 .align 2
 595              	.L19:
 596 0010 00000000 	 .word UART_0
 597              	 .cfi_endproc
 598              	.LFE156:
 600              	 .text
 601              	.Letext0:
 602              	 .file 5 "c:\\davev4-64bit\\dave-4.3.2\\eclipse\\arm-gcc-49\\arm-none-eabi\\include\\machine\\_default_types.h"
 603              	 .file 6 "c:\\davev4-64bit\\dave-4.3.2\\eclipse\\arm-gcc-49\\arm-none-eabi\\include\\stdint.h"
 604              	 .file 7 "C:/Workspaces/DAVE4/RGB_led/Libraries/CMSIS/Infineon/XMC1100_series/Include/XMC1100.h"
 605              	 .file 8 "C:/Workspaces/DAVE4/RGB_led/Libraries/XMCLib/inc/xmc_gpio.h"
 606              	 .file 9 "C:/Workspaces/DAVE4/RGB_led/Libraries/XMCLib/inc/xmc1_gpio.h"
 607              	 .file 10 "../Dave/Generated/UART/uart.h"
 608              	 .file 11 "C:/Workspaces/DAVE4/RGB_led/Libraries/CMSIS/Infineon/XMC1100_series/Include/system_XMC1100.h"